
/media/cvitek/yijun.liu01/car/mars/litiantai/pnd-ltt/MediaSDK/out/build_fsbl/bl2/bl2.elf:     file format elf64-littleaarch64
/media/cvitek/yijun.liu01/car/mars/litiantai/pnd-ltt/MediaSDK/out/build_fsbl/bl2/bl2.elf
architecture: aarch64, flags 0x00000112:
EXEC_P, HAS_SYMS, D_PAGED
start address 0x0000000040100000

Program Header:
    LOAD off    0x0000000000010000 vaddr 0x000000000c030000 paddr 0x000000000c030000 align 2**16
         filesz 0x0000000000000850 memsz 0x0000000000000850 flags rwx
    LOAD off    0x0000000000020000 vaddr 0x0000000040100000 paddr 0x0000000040100000 align 2**16
         filesz 0x000000000000eef0 memsz 0x0000000000016300 flags rwx
   STACK off    0x0000000000000000 vaddr 0x0000000000000000 paddr 0x0000000000000000 align 2**4
         filesz 0x0000000000000000 memsz 0x0000000000000000 flags rw-
private flags = 0:

Sections:
Idx Name          Size      VMA               LMA               File off  Algn
  0 ro            0000ecc5  0000000040100000  0000000040100000  00020000  2**11
                  CONTENTS, ALLOC, LOAD, READONLY, CODE
  1 .data         0000022b  000000004010ecc5  000000004010ecc5  0002ecc5  2**3
                  CONTENTS, ALLOC, LOAD, DATA
  2 stacks        00002010  000000004010eef0  000000004010eef0  0002eef0  2**0
                  ALLOC
  3 .bss          00005300  0000000040111000  0000000040111000  0002eef0  2**9
                  ALLOC
  4 .suspend_sect 00000850  000000000c030000  000000000c030000  00010000  2**3
                  CONTENTS, ALLOC, LOAD, CODE
  5 .debug_info   0006e3a8  0000000000000000  0000000000000000  0002eef0  2**0
                  CONTENTS, READONLY, DEBUGGING
  6 .debug_abbrev 00004cc4  0000000000000000  0000000000000000  0009d298  2**0
                  CONTENTS, READONLY, DEBUGGING
  7 .debug_aranges 00001da0  0000000000000000  0000000000000000  000a1f60  2**4
                  CONTENTS, READONLY, DEBUGGING
  8 .debug_macro  00008411  0000000000000000  0000000000000000  000a3d00  2**0
                  CONTENTS, READONLY, DEBUGGING
  9 .debug_line   000156e4  0000000000000000  0000000000000000  000ac111  2**0
                  CONTENTS, READONLY, DEBUGGING
 10 .debug_str    0001c143  0000000000000000  0000000000000000  000c17f5  2**0
                  CONTENTS, READONLY, DEBUGGING
 11 .comment      0000002d  0000000000000000  0000000000000000  000dd938  2**0
                  CONTENTS, READONLY
 12 .debug_ranges 00028a00  0000000000000000  0000000000000000  000dd970  2**4
                  CONTENTS, READONLY, DEBUGGING
 13 .debug_frame  00004368  0000000000000000  0000000000000000  00106370  2**3
                  CONTENTS, READONLY, DEBUGGING
 14 .debug_loc    000ceea7  0000000000000000  0000000000000000  0010a6d8  2**0
                  CONTENTS, READONLY, DEBUGGING
SYMBOL TABLE:
0000000040100000 l    d  ro	0000000000000000 ro
000000004010ecc5 l    d  .data	0000000000000000 .data
000000004010eef0 l    d  stacks	0000000000000000 stacks
0000000040111000 l    d  .bss	0000000000000000 .bss
000000000c030000 l    d  .suspend_sect	0000000000000000 .suspend_sect
0000000000000000 l    d  .debug_info	0000000000000000 .debug_info
0000000000000000 l    d  .debug_abbrev	0000000000000000 .debug_abbrev
0000000000000000 l    d  .debug_aranges	0000000000000000 .debug_aranges
0000000000000000 l    d  .debug_macro	0000000000000000 .debug_macro
0000000000000000 l    d  .debug_line	0000000000000000 .debug_line
0000000000000000 l    d  .debug_str	0000000000000000 .debug_str
0000000000000000 l    d  .comment	0000000000000000 .comment
0000000000000000 l    d  .debug_ranges	0000000000000000 .debug_ranges
0000000000000000 l    d  .debug_frame	0000000000000000 .debug_frame
0000000000000000 l    d  .debug_loc	0000000000000000 .debug_loc
0000000000000000 l    df *ABS*	0000000000000000 /media/cvitek/yijun.liu01/car/mars/litiantai/pnd-ltt/MediaSDK/out/build_fsbl/bl2/bl2_entrypoint.o
00000000401000a4 l       ro	0000000000000000 do_disable_mmu
0000000000000000 l    df *ABS*	0000000000000000 /media/cvitek/yijun.liu01/car/mars/litiantai/pnd-ltt/MediaSDK/out/build_fsbl/bl2/bl2_exceptions.o
0000000040100800 l       ro	0000000000000000 SynchronousExceptionSP0
0000000040100880 l       ro	0000000000000000 IrqSP0
0000000040100900 l       ro	0000000000000000 FiqSP0
0000000040100980 l       ro	0000000000000000 SErrorSP0
0000000040100a00 l       ro	0000000000000000 SynchronousExceptionSPx
0000000040100a80 l       ro	0000000000000000 IrqSPx
0000000040100b00 l       ro	0000000000000000 FiqSPx
0000000040100b80 l       ro	0000000000000000 SErrorSPx
0000000040100c00 l       ro	0000000000000000 SynchronousExceptionA64
0000000040100f8c l       ro	0000000000000000 unexpected_sync_exception
000000004010d790 l     F ro	0000000000000014 smc_handler64
0000000040100c80 l       ro	0000000000000000 IrqA64
0000000040100d00 l       ro	0000000000000000 FiqA64
0000000040100d80 l       ro	0000000000000000 SErrorA64
0000000040100e00 l       ro	0000000000000000 SynchronousExceptionA32
0000000040100e80 l       ro	0000000000000000 IrqA32
0000000040100f00 l       ro	0000000000000000 FiqA32
0000000040100f80 l       ro	0000000000000000 SErrorA32
0000000000000000 l    df *ABS*	0000000000000000 cpu_helper.c
0000000000000000 l    df *ABS*	0000000000000000 delay_timer.c
0000000000000000 l    df *ABS*	0000000000000000 bl2_helper.c
0000000040111000 l     O .bss	00000000000000e0 next_info
000000004010d9d0 l     O ro	0000000000000010 __func__.4077
0000000000000000 l    df *ABS*	0000000000000000 tf_printf.c
0000000040101204 l     F ro	00000000000000a4 unsigned_num_print
0000000000000000 l    df *ABS*	0000000000000000 platform.c
0000000000000000 l    df *ABS*	0000000000000000 mem.c
0000000000000000 l    df *ABS*	0000000000000000 putchar.c
0000000000000000 l    df *ABS*	0000000000000000 bl2_opt.c
00000000401022c4 l     F ro	0000000000000020 read_time_ms
0000000040111198 l     O .bss	0000000000000004 count.4382
000000004011119c l     O .bss	0000000000000004 cur_boot_src
000000004010dae8 l     O ro	0000000000000012 __func__.4373
0000000000000000 l    df *ABS*	0000000000000000 cvi_spinor.c
00000000401030d4 l     F ro	000000000000004c spi_non_data_tran
0000000000000000 l    df *ABS*	0000000000000000 cvi_spinand.c
0000000040103338 l     F ro	00000000000000ec spi_nand_get_feature
0000000040103424 l     F ro	00000000000000c0 spi_nand_set_feature
00000000401110e0 l     O .bss	0000000000000080 spinand_info
000000004010ece0 l     O .data	0000000000000001 ecc_en_status
000000004010dfa8 l     O ro	0000000000000015 __func__.4104
000000004010dfc0 l     O ro	0000000000000015 __func__.4116
000000004010dfd8 l     O ro	0000000000000015 __func__.4132
000000004010dff0 l     O ro	000000000000001f __func__.4151
0000000000000000 l    df *ABS*	0000000000000000 emmc.c
0000000040103b48 l     F ro	00000000000000c0 emmc_device_state
0000000040103c08 l     F ro	0000000000000088 emmc_set_ext_csd
0000000040103c90 l     F ro	0000000000000068 emmc_rw_enable
0000000040111160 l     O .bss	0000000000000010 emmc_cid
0000000040111170 l     O .bss	0000000000000010 emmc_csd
00000000401111a0 l     O .bss	0000000000000004 emmc_flags
00000000401111a4 l     O .bss	0000000000000004 emmc_ocr_value
0000000040111180 l     O .bss	0000000000000008 ops
000000004010e180 l     O ro	0000000000000012 __func__.4190
0000000000000000 l    df *ABS*	0000000000000000 cv_emmc.c
0000000040104214 l     F ro	00000000000000c4 bm_emmc_prepare
00000000401042d8 l     F ro	0000000000000008 bm_emmc_write
00000000401042e0 l     F ro	0000000000000090 bm_emmc_dev_reset
0000000040104370 l     F ro	000000000000031c bm_emmc_send_cmd
000000004010468c l     F ro	0000000000000008 bm_emmc_read
00000000401047e0 l     F ro	0000000000000154 bm_emmc_set_ios
0000000040104934 l     F ro	000000000000013c bm_emmc_hw_init
000000004010ece8 l     O .data	0000000000000030 bm_params
000000004010e2a0 l     O ro	000000000000001b __func__.4218
000000004010e2c0 l     O ro	000000000000001e __func__.4234
000000004010e2e0 l     O ro	0000000000000010 __func__.4255
000000004010e2f0 l     O ro	0000000000000010 __func__.4280
000000004010e390 l     O ro	0000000000000038 bm_emmc_ops
0000000000000000 l    df *ABS*	0000000000000000 LzmaDec.c
0000000040104c20 l     F ro	0000000000000088 LzmaDec_WriteRem
0000000040104ca8 l     F ro	0000000000001310 LzmaDec_DecodeReal2
0000000040105fb8 l     F ro	0000000000000614 LzmaDec_TryDummy
000000004010695c l     F ro	0000000000000088 LzmaDec_AllocateProbs2.isra.1
0000000000000000 l    df *ABS*	0000000000000000 lz4_all.c
0000000040106bac l     F ro	0000000000000024 LZ4F_readLE32
0000000040106bd0 l     F ro	0000000000000734 LZ4_decompress_safe_withSmallPrefix
0000000040107304 l     F ro	000000000000017c LZ4F_updateDict
0000000040108c80 l     F ro	0000000000000228 LZ4F_decodeHeader
000000004010e558 l     O ro	0000000000000020 blockSizes.4903
000000004010e578 l     O ro	0000000000000020 dec64table
000000004010e598 l     O ro	0000000000000020 inc32table
0000000000000000 l    df *ABS*	0000000000000000 xxhash.c
00000000401098d0 l     F ro	0000000000000028 XXH32_avalanche
00000000401098f8 l     F ro	0000000000000024 XXH_read32
000000004010991c l     F ro	00000000000003bc XXH32_finalize.constprop.1
0000000000000000 l    df *ABS*	0000000000000000 crc16.c
000000004010e5d8 l     O ro	0000000000000200 crc16_tab
0000000000000000 l    df *ABS*	0000000000000000 decompress.c
000000004010a1e4 l     F ro	0000000000000004 SzFree
000000004010a1e8 l     F ro	0000000000000054 SzAlloc
0000000040111188 l     O .bss	0000000000000008 comp_alloc_buf
0000000040111190 l     O .bss	0000000000000008 comp_alloc_size
000000004010e7f8 l     O ro	0000000000000008 __func__.4345
000000004010e800 l     O ro	0000000000000010 __func__.4362
0000000000000000 l    df *ABS*	0000000000000000 bl2_2nd_parse.c
0000000000000000 l    df *ABS*	0000000000000000 bl2_main.c
0000000000000000 l    df *ABS*	0000000000000000 ddr.c
0000000000000000 l    df *ABS*	0000000000000000 ddr_pkg_info.c
0000000000000000 l    df *ABS*	0000000000000000 ddr_sys_bring_up.c
0000000000000000 l    df *ABS*	0000000000000000 ddr_sys.c
0000000000000000 l    df *ABS*	0000000000000000 phy_pll_init.c
0000000000000000 l    df *ABS*	0000000000000000 cvx16_pinmux.c
0000000000000000 l    df *ABS*	0000000000000000 cvx16_dram_cap_check.c
0000000000000000 l    df *ABS*	0000000000000000 ddrc_init.c
0000000000000000 l    df *ABS*	0000000000000000 phy_init.c
0000000000000000 l    df *ABS*	0000000000000000 /media/cvitek/yijun.liu01/car/mars/litiantai/pnd-ltt/MediaSDK/out/build_fsbl/bl2/cache_helpers.o
000000004010d7e4 l       ro	0000000000000000 exit_loop_civac
000000004010d7d0 l       ro	0000000000000000 loop_civac
000000004010d81c l       ro	0000000000000000 exit_loop_ivac
000000004010d808 l       ro	0000000000000000 loop_ivac
0000000000000000 l    df *ABS*	0000000000000000 /media/cvitek/yijun.liu01/car/mars/litiantai/pnd-ltt/MediaSDK/out/build_fsbl/bl2/misc_helpers.o
000000004010d828 l     F ro	00000000000000f4 zeromem_dczva
0000000000000000 l    df *ABS*	0000000000000000 /media/cvitek/yijun.liu01/car/mars/litiantai/pnd-ltt/MediaSDK/out/build_fsbl/bl2/console.o
0000000000000000 l    df *ABS*	0000000000000000 /media/cvitek/yijun.liu01/car/mars/litiantai/pnd-ltt/MediaSDK/out/build_fsbl/bl2/16550_console_aarch64.o
000000004010d968 l       ro	0000000000000000 putc_error
000000004010d98c l       ro	0000000000000000 flush_error
0000000000000000 l    df *ABS*	0000000000000000 
0000000000000000 l    df *ABS*	0000000000000000 ddr_patch_regs.c
0000000000000000 l    df *ABS*	0000000000000000 ddr_suspend.c
000000000c0301f4 l     F .suspend_sect	0000000000000050 susp_udelay.constprop.1
000000004010acf8 g     F ro	000000000000000c get_ddr_vendor
000000004010ed20 g     O .data	00000000000001c8 ddr_patch_regs
0000000040116200 g     O .bss	0000000000000080 header_2nd
0000000040100fdc g     F ro	000000000000000c mdelay
000000004010ad10 g     F ro	0000000000000044 axi_mon_start_all
0000000040100800 g       ro	0000000000000000 bl2_exceptions
00000000401162d8 g     O .bss	0000000000000004 tar_freq
000000004010ecd8 g     O .data	0000000000000008 time_records
0000000040000100 g       *ABS*	0000000000000000 p_rom_api_cryptodma_aes_decrypt
00000000401162dc g     O .bss	0000000000000004 freq_in
000000004010d820 g     F ro	0000000000000008 zeromem
000000004010d9b8 g     O ro	0000000000000016 version_string
0000000040000080 g       *ABS*	0000000000000000 p_rom_api_flash_init
000000004010a680 g     F ro	0000000000000008 dec_verify_image
000000004010a5b4 g     F ro	0000000000000004 set_boot_flag_2nd
000000004010224c g     F ro	0000000000000078 putchar_l
000000004010a3c8 g     F ro	0000000000000004 LZ4_free
000000004010a678 g     F ro	0000000000000008 get_head_2nd
0000000040000020 g       *ABS*	0000000000000000 p_rom_api_get_boot_src
00000000401011dc g     F ro	0000000000000004 jump_to_loader_2nd
0000000040101104 g     F ro	00000000000000d8 jump_to_monitor
00000000401162e0 g     O .bss	0000000000000008 reg_step
0000000040102204 g     F ro	0000000000000048 memmove
000000004010b084 g     F ro	0000000000000084 cvx16_bist_wr_prbs_init
0000000040107480 g     F ro	000000000000073c LZ4_decompress_safe
000000004010006c g     F ro	0000000000000000 call_with_eret
000000004010ba3c g     F ro	000000000000006c cvx16_ddr_phy_power_on_seq1
00000000401000c4 g     F ro	000000000000001c jump_bl31
00000000401065e4 g     F ro	0000000000000348 LzmaDec_DecodeToDic
0000000040103684 g     F ro	0000000000000274 cv_spi_nand_read_page_by_row_addr
000000004010b214 g     F ro	0000000000000078 cvx16_bist_rdglvl_init
000000004010b19c g     F ro	0000000000000078 cvx16_bist_wrlvl_init
000000004010d998 g     O ro	000000000000001a build_message
000000004010c5e0 g     F ro	0000000000000228 cvx16_wdqlvl_req
000000004010ecd0 g       .data	0000000000000000 __DATA_START__
000000004010165c g     F ro	0000000000000118 __system_reset
0000000040101f54 g     F ro	0000000000000080 switch_rtc_mode_2nd_stage
0000000040102f1c g     F ro	00000000000001b8 load_rest
000000004010a1ac g     F ro	0000000000000038 crc16_ccitt
000000004010bbe0 g     F ro	0000000000000040 cvx16_set_dfi_init_complete
000000004010bb6c g     F ro	0000000000000054 cvx16_wait_for_dfi_init_complete
0000000040102414  w    F ro	000000000000001c bl2_decompress
000000004010bf7c g     F ro	0000000000000248 cvx16_wrlvl_req
000000004010c36c g     F ro	0000000000000274 cvx16_rdlvl_req
0000000040102170 g     F ro	0000000000000094 memcpy
00000000401018d4 g     F ro	0000000000000290 sys_pll_od
000000004010b3f8 g     F ro	0000000000000118 cvx16_bist_wdqlvl_init
0000000040103120 g     F ro	0000000000000218 cv_spinor_init
000000004010d828 g     F ro	00000000000000f4 zero_normalmem
000000004010d92c g     F ro	0000000000000044 console_core_putc
0000000040102b0c  w    F ro	0000000000000160 load_bl32
000000004010d168 g     F ro	000000000000002c ctrl_init_low_patch
00000000401065cc g     F ro	0000000000000018 LzmaDec_Init
0000000040102988 g     F ro	0000000000000184 load_monitor
00000000401162d0 g     O .bss	0000000000000001 pkg
0000000040110f00 g       stacks	0000000000000000 __STACKS_END__
000000004010b89c g     F ro	0000000000000028 cvx16_clk_div40
0000000040101774 g     F ro	0000000000000040 panic_handler
000000004010ce60 g     F ro	0000000000000004 cvx16_dram_cap_check
000000004010b5a4 g     F ro	0000000000000088 cvx16_bist_start_check
00000000401162e8 g     O .bss	0000000000000004 mod_freq
00000000400000e0 g       *ABS*	0000000000000000 p_rom_api_verify_rsa
00000000401011e0 g     F ro	0000000000000024 bl2_smc_handler
000000004010c808 g     F ro	0000000000000004 cvx16_en_rec_vol_mode
0000000040101010 g     F ro	0000000000000010 read_count_tick
000000004010bee4 g     F ro	0000000000000098 cvx16_clk_gating_enable
000000004010a4ac g     F ro	00000000000000bc decompress
000000004010b108 g     F ro	0000000000000094 cvx16_bist_wr_sram_init
0000000000005300 g       *ABS*	0000000000000000 __BSS_SIZE__
000000000c030000 g       .suspend_sect	0000000000000000 __suspend_sect_start
00000000401000a0 g     F ro	000000000000001c disable_mmu_el3
0000000040100fe8 g     F ro	0000000000000028 get_timer
000000004010bb08 g     F ro	0000000000000064 cvx16_ddr_phy_power_on_seq3
000000004010a688 g     F ro	0000000000000020 load_kernel
000000004010d91c g     F ro	0000000000000008 console_putc
0000000040100fa4 g     F ro	0000000000000004 cpu_report_exception
00000000401162d4 g     O .bss	0000000000000004 rddata
000000004010b8c4 g     F ro	0000000000000178 cvx16_chg_pll_freq
000000004010d7b0 g     F ro	0000000000000038 flush_dcache_range
0000000040104bb4 g     F ro	000000000000006c bm_emmc_init
0000000040101b64 g     F ro	00000000000002dc sys_pll_nd
000000004010a5b8 g     F ro	0000000000000058 header_verify_2nd
0000000040101e6c g     F ro	00000000000000e8 switch_rtc_mode_1st_stage
0000000040101fd4 g     F ro	00000000000000ec set_rtc_en_registers
0000000040102430 g     F ro	0000000000000104 load_param2
0000000040108ef0 g     F ro	00000000000009e0 LZ4F_decompress
000000004010ca64 g     F ro	00000000000003fc cvx16_pinmux
000000004010b768 g     F ro	0000000000000080 cvx16_dll_cal
000000000c030248 g       .suspend_sect	0000000000000000 __suspend_data_start
000000004010be90 g     F ro	0000000000000054 cvx16_clk_gating_disable
0000000040108ea8 g     F ro	0000000000000048 LZ4F_createDecompressionContext
000000004010a804 g     F ro	0000000000000084 check_spi_nor
00000000401035e8 g     F ro	000000000000009c spi_nand_parsing_ecc_info
0000000040116300 g       .bss	0000000000000000 __BL2_END__
0000000040104694 g     F ro	000000000000014c bm_emmc_set_clk
00000000401034e4 g     F ro	0000000000000104 spi_nand_rw_dma_setup
000000004010baa8 g     F ro	0000000000000060 cvx16_ddr_phy_power_on_seq2
000000004010bc20 g     F ro	0000000000000038 cvx16_INT_ISR_08
0000000040108324 g     F ro	00000000000008e8 LZ4_decompress_safe_forceExtDict
0000000040106a6c g     F ro	000000000000004c LzmaDec_AllocateProbs
000000004010ecd0 g     O .data	0000000000000008 fip_param1
000000004010bd84 g     F ro	000000000000010c cvx16_pll_init
000000004010a764 g     F ro	00000000000000a0 init_param_memory
000000004010a888 g     F ro	0000000000000158 bl2_main
000000004010eef0 g       .data	0000000000000000 __DATA_END__
000000004010692c g     F ro	0000000000000030 LzmaDec_FreeProbs
000000004010a23c g     F ro	0000000000000144 decompress_lzma
000000004010b510 g     F ro	0000000000000094 cvx16_bist_wdmlvl_init
0000000040100fa8 g     F ro	0000000000000034 udelay
000000004010bbc0 g     F ro	0000000000000020 cvx16_polling_dfi_init_start
000000004010b28c g     F ro	000000000000016c cvx16_bist_rdlvl_init
00000000401162d1 g     O .bss	0000000000000001 ddr_vendor
000000004010d7e8 g     F ro	0000000000000038 inv_dcache_range
00000000400000a0 g       *ABS*	0000000000000000 p_rom_api_image_crc
0000000040100000 g     F ro	0000000000000064 bl2_entrypoint
0000000040102c6c  w    F ro	00000000000002b0 load_loader_2nd
000000004010ad04 g     F ro	000000000000000c get_pkg
00000000401022e4  w    F ro	0000000000000004 init_comm_info
000000000c03024c g     O .suspend_sect	0000000000000004 total_delta
00000000401020c0 g     F ro	0000000000000034 memcmp
00000000401162ec g     O .bss	0000000000000004 dev_freq
0000000040101020 g     F ro	00000000000000e4 switch_el3_to_el2_ns
00000000401018c0 g     F ro	0000000000000014 sys_switch_all_to_pll
0000000040116300 g       .bss	0000000000000000 __BSS_END__
000000004010aa24 g     F ro	00000000000002d4 read_ddr_pkg_info
0000000040000040 g       *ABS*	0000000000000000 p_rom_api_set_boot_src
00000000401069e4 g     F ro	0000000000000088 LzmaProps_Decode
000000004010bd14 g     F ro	0000000000000034 cvx16_setting_check
0000000040111200 g     O .bss	0000000000001000 fip_param2
00000000401025f0 g     F ro	0000000000000280 load_blcp_2nd
00000000401162f0 g     O .bss	0000000000000008 reg_span
000000004010b7e8 g     F ro	000000000000008c cvx16_clk_normal
00000000401020f4 g     F ro	000000000000007c memset
0000000040109f3c g     F ro	000000000000021c XXH32_update
00000000401000bc g     F ro	0000000000000008 disable_mmu_icache_el3
000000000c030250 g     O .suspend_sect	0000000000000004 delta
000000004010d194 g     F ro	00000000000000e0 ctrl_init_update_by_dram_size
0000000040116280 g     O .bss	0000000000000050 macros_misc
0000000040109ec4 g     F ro	0000000000000078 XXH32_reset
000000000c030850 g       .suspend_sect	0000000000000000 __suspend_sect_end
0000000040109cd8 g     F ro	00000000000001ec XXH32
000000004010b62c g     F ro	0000000000000098 cvx16_rdvld_train
000000004010ce64 g     F ro	00000000000002d8 ddrc_init
0000000040107bbc g     F ro	0000000000000768 LZ4_decompress_safe_withPrefix64k
0000000040103f10 g     F ro	0000000000000304 emmc_init
000000000c030000 g     F .suspend_sect	00000000000001f4 ddr_suspend_entry
00000000401012a8 g     F ro	00000000000003b4 tf_printf
000000004010d970 g     F ro	0000000000000024 console_core_flush
0000000040112200 g     O .bss	0000000000004000 sram_union_buf
000000004010a38c g     F ro	000000000000003c LZ4_calloc
0000000040103cf8 g     F ro	00000000000001ac emmc_read_blocks
000000004010d924 g     F ro	0000000000000008 console_flush
000000004010ecc5 g       ro	0000000000000000 __RO_END__
000000004010a568 g     F ro	000000000000004c print_head_2nd
0000000040000060 g       *ABS*	0000000000000000 p_rom_api_load_image
0000000040108c44 g     F ro	000000000000000c LZ4F_isError
0000000040111000 g       .bss	0000000000000000 __BSS_START__
0000000040102870 g     F ro	0000000000000118 load_user_param_and_logo
0000000040100000 g       ro	0000000000000000 __RO_START__
000000004010c1c4 g     F ro	00000000000001a8 cvx16_rdglvl_req
00000000401111a8 g     O .bss	0000000000000004 chip_clk_mode
000000000c030258 g     O .suspend_sect	00000000000005f8 save_phy_regs
0000000040100020 g       ro	0000000000000000 bl2_entrypoint_real
000000004010bc58 g     F ro	0000000000000028 cvx16_polling_synp_normal_mode
0000000040108c0c g     F ro	0000000000000038 LZ4_decompress_safe_usingDict
000000004010a380 g     F ro	000000000000000c LZ4_malloc
000000004010c80c g     F ro	00000000000001a4 ctrl_init_detect_dram_size
000000004010a610 g     F ro	0000000000000068 verify_2nd
00000000400000c0 g       *ABS*	0000000000000000 p_rom_api_get_number_of_retries
000000004010a6a8 g     F ro	0000000000000090 init_macros
0000000040100f98 g     F ro	000000000000000c sync_cache
0000000040101824 g     F ro	000000000000005c setup_dl_flag
00000000401017b4 g     F ro	0000000000000070 reset_c906l
00000000401162f8 g     O .bss	0000000000000008 reg_set
0000000040106ab8 g     F ro	00000000000000f4 LzmaDecode
000000004010ef00 g       stacks	0000000000000000 __STACKS_START__
000000000c030248 g     O .suspend_sect	0000000000000004 start
0000000040101e40 g     F ro	000000000000002c sys_pll_init
000000004010eee8 g     O .data	0000000000000004 ddr_patch_regs_count
0000000040101880 g     F ro	0000000000000040 config_core_power
000000004010ed18 g     O .data	0000000000000004 ddr_data_rate
0000000040103ea4 g     F ro	000000000000006c emmc_partition_read_blocks
000000004010bc80 g     F ro	0000000000000094 cvx16_dfi_ca_park_prbs
00000000401162d2 g     O .bss	0000000000000001 ddr_type
000000004010ad54 g     F ro	0000000000000330 ddr_sys_bring_up
0000000040100064 g     F ro	0000000000000000 call_with_eret_to_next
000000004010a158 g     F ro	0000000000000054 XXH32_digest
000000004010a9e0 g     F ro	0000000000000044 ddr_init
000000004010a3cc g     F ro	00000000000000e0 decompress_lz4
000000004010a738 g     F ro	000000000000002c init_ipcm_memory
0000000040104a70 g     F ro	0000000000000144 bm_emmc_phy_init
0000000040108c50 g     F ro	0000000000000030 LZ4F_getBlockSize
00000000401162d3 g     O .bss	0000000000000001 ddr_capacity
000000004010bd48 g     F ro	000000000000003c cvx16_set_dfi_init_start
000000004010d13c g     F ro	000000000000002c ctrl_init_high_patch
00000000401022e8 g     F ro	000000000000012c load_data_from_storage
0000000040102534 g     F ro	00000000000000bc load_ddr
00000000401038f8 g     F ro	0000000000000194 get_nand_info
000000004010b6c4 g     F ro	00000000000000a4 cvx16_synp_mrw
0000000040103a8c g     F ro	00000000000000bc cv_spi_nand_read_data
000000004010b874 g     F ro	0000000000000028 cvx16_clk_div2
000000004010d274 g     F ro	0000000000000518 phy_init
000000004010c9b0 g     F ro	00000000000000b4 pll_init



Disassembly of section ro:

0000000040100000 <bl2_entrypoint>:
    40100000:	14000008 	b	40100020 <bl2_entrypoint_real>
	...

0000000040100020 <bl2_entrypoint_real>:
    40100020:	52b6400e 	mov	w14, #0xb2000000            	// #-1308622848
    40100024:	d280108f 	mov	x15, #0x84                  	// #132
    40100028:	f2a0600f 	movk	x15, #0x300, lsl #16
    4010002c:	b90001ee 	str	w14, [x15]
    40100030:	d508751f 	ic	iallu
    40100034:	d5033fdf 	isb
    40100038:	10003e40 	adr	x0, 40100800 <bl2_exceptions>
    4010003c:	d51ec000 	msr	vbar_el3, x0
    40100040:	d5033fdf 	isb
    40100044:	d50344ff 	msr	daifclr, #0x4
    40100048:	58000200 	ldr	x0, 40100088 <call_with_eret+0x1c>
    4010004c:	58000221 	ldr	x1, 40100090 <call_with_eret+0x24>
    40100050:	940035f4 	bl	4010d820 <zeromem>
    40100054:	58000220 	ldr	x0, 40100098 <call_with_eret+0x2c>
    40100058:	9100001f 	mov	sp, x0
    4010005c:	94002a0b 	bl	4010a888 <bl2_main>
    40100060:	940005c5 	bl	40101774 <panic_handler>

0000000040100064 <call_with_eret_to_next>:
    40100064:	aa1e03e9 	mov	x9, x30
    40100068:	14000002 	b	40100070 <call_with_eret+0x4>

000000004010006c <call_with_eret>:
    4010006c:	aa0003e9 	mov	x9, x0
    40100070:	d51e4029 	msr	elr_el3, x9
    40100074:	d53ec009 	mrs	x9, vbar_el3
    40100078:	d51cc009 	msr	vbar_el2, x9
    4010007c:	d69f03e0 	eret
    40100080:	14000000 	b	40100080 <call_with_eret+0x14>
    40100084:	00000000 	.inst	0x00000000 ; undefined
    40100088:	40111000 	.word	0x40111000
    4010008c:	00000000 	.word	0x00000000
    40100090:	00005300 	.word	0x00005300
    40100094:	00000000 	.word	0x00000000
    40100098:	40110f00 	.word	0x40110f00
    4010009c:	00000000 	.word	0x00000000

00000000401000a0 <disable_mmu_el3>:
    401000a0:	d28000a1 	mov	x1, #0x5                   	// #5

00000000401000a4 <do_disable_mmu>:
    401000a4:	d53e1000 	mrs	x0, sctlr_el3
    401000a8:	8a210000 	bic	x0, x0, x1
    401000ac:	d51e1000 	msr	sctlr_el3, x0
    401000b0:	d5033fdf 	isb
    401000b4:	d5033f9f 	dsb	sy
    401000b8:	d65f03c0 	ret

00000000401000bc <disable_mmu_icache_el3>:
    401000bc:	d28200a1 	mov	x1, #0x1005                	// #4101
    401000c0:	17fffff9 	b	401000a4 <do_disable_mmu>

00000000401000c4 <jump_bl31>:
    401000c4:	aa0003f4 	mov	x20, x0
    401000c8:	aa0103f5 	mov	x21, x1
    401000cc:	97fffffc 	bl	401000bc <disable_mmu_icache_el3>
    401000d0:	d50e871f 	tlbi	alle3
    401000d4:	aa1503e0 	mov	x0, x21
    401000d8:	aa1f03e1 	mov	x1, xzr
    401000dc:	d63f0280 	blr	x20
	...

0000000040100800 <bl2_exceptions>:
    40100800:	d2800000 	mov	x0, #0x0                   	// #0
    40100804:	940001e8 	bl	40100fa4 <cpu_report_exception>
    40100808:	940003db 	bl	40101774 <panic_handler>
	...

0000000040100880 <IrqSP0>:
    40100880:	d2800020 	mov	x0, #0x1                   	// #1
    40100884:	940001c8 	bl	40100fa4 <cpu_report_exception>
    40100888:	940003bb 	bl	40101774 <panic_handler>
	...

0000000040100900 <FiqSP0>:
    40100900:	d2800040 	mov	x0, #0x2                   	// #2
    40100904:	940001a8 	bl	40100fa4 <cpu_report_exception>
    40100908:	9400039b 	bl	40101774 <panic_handler>
	...

0000000040100980 <SErrorSP0>:
    40100980:	d2800060 	mov	x0, #0x3                   	// #3
    40100984:	94000188 	bl	40100fa4 <cpu_report_exception>
    40100988:	9400037b 	bl	40101774 <panic_handler>
	...

0000000040100a00 <SynchronousExceptionSPx>:
    40100a00:	d2800080 	mov	x0, #0x4                   	// #4
    40100a04:	94000168 	bl	40100fa4 <cpu_report_exception>
    40100a08:	9400035b 	bl	40101774 <panic_handler>
	...

0000000040100a80 <IrqSPx>:
    40100a80:	d28000a0 	mov	x0, #0x5                   	// #5
    40100a84:	94000148 	bl	40100fa4 <cpu_report_exception>
    40100a88:	9400033b 	bl	40101774 <panic_handler>
	...

0000000040100b00 <FiqSPx>:
    40100b00:	d28000c0 	mov	x0, #0x6                   	// #6
    40100b04:	94000128 	bl	40100fa4 <cpu_report_exception>
    40100b08:	9400031b 	bl	40101774 <panic_handler>
	...

0000000040100b80 <SErrorSPx>:
    40100b80:	d28000e0 	mov	x0, #0x7                   	// #7
    40100b84:	94000108 	bl	40100fa4 <cpu_report_exception>
    40100b88:	940002fb 	bl	40101774 <panic_handler>
	...

0000000040100c00 <SynchronousExceptionA64>:
    40100c00:	d50344ff 	msr	daifclr, #0x4
    40100c04:	d53e521e 	mrs	x30, esr_el3
    40100c08:	d35a7fde 	ubfx	x30, x30, #26, #6
    40100c0c:	f1005fdf 	cmp	x30, #0x17
    40100c10:	54001be1 	b.ne	40100f8c <unexpected_sync_exception>
    40100c14:	140032df 	b	4010d790 <smc_handler64>
	...

0000000040100c80 <IrqA64>:
    40100c80:	d2800120 	mov	x0, #0x9                   	// #9
    40100c84:	940000c8 	bl	40100fa4 <cpu_report_exception>
    40100c88:	940002bb 	bl	40101774 <panic_handler>
	...

0000000040100d00 <FiqA64>:
    40100d00:	d2800140 	mov	x0, #0xa                   	// #10
    40100d04:	940000a8 	bl	40100fa4 <cpu_report_exception>
    40100d08:	9400029b 	bl	40101774 <panic_handler>
	...

0000000040100d80 <SErrorA64>:
    40100d80:	d2800160 	mov	x0, #0xb                   	// #11
    40100d84:	94000088 	bl	40100fa4 <cpu_report_exception>
    40100d88:	9400027b 	bl	40101774 <panic_handler>
	...

0000000040100e00 <SynchronousExceptionA32>:
    40100e00:	d2800180 	mov	x0, #0xc                   	// #12
    40100e04:	94000068 	bl	40100fa4 <cpu_report_exception>
    40100e08:	9400025b 	bl	40101774 <panic_handler>
	...

0000000040100e80 <IrqA32>:
    40100e80:	d28001a0 	mov	x0, #0xd                   	// #13
    40100e84:	94000048 	bl	40100fa4 <cpu_report_exception>
    40100e88:	9400023b 	bl	40101774 <panic_handler>
	...

0000000040100f00 <FiqA32>:
    40100f00:	d28001c0 	mov	x0, #0xe                   	// #14
    40100f04:	94000028 	bl	40100fa4 <cpu_report_exception>
    40100f08:	9400021b 	bl	40101774 <panic_handler>
	...

0000000040100f80 <SErrorA32>:
    40100f80:	d28001e0 	mov	x0, #0xf                   	// #15
    40100f84:	94000008 	bl	40100fa4 <cpu_report_exception>
    40100f88:	940001fb 	bl	40101774 <panic_handler>

0000000040100f8c <unexpected_sync_exception>:
    40100f8c:	d2800100 	mov	x0, #0x8                   	// #8
    40100f90:	94000005 	bl	40100fa4 <cpu_report_exception>
    40100f94:	940001f8 	bl	40101774 <panic_handler>

0000000040100f98 <sync_cache>:
    40100f98:	d508751f 	ic	iallu
    40100f9c:	d5033fdf 	isb
    40100fa0:	d65f03c0 	ret

0000000040100fa4 <cpu_report_exception>:
    40100fa4:	d65f03c0 	ret

0000000040100fa8 <udelay>:
    40100fa8:	d53be022 	mrs	x2, cntpct_el0
    40100fac:	52800321 	mov	w1, #0x19                  	// #25
    40100fb0:	2a2203e2 	mvn	w2, w2
    40100fb4:	1b017c00 	mul	w0, w0, w1
    40100fb8:	d2801101 	mov	x1, #0x88                  	// #136
    40100fbc:	f2a06001 	movk	x1, #0x300, lsl #16
    40100fc0:	b9000020 	str	w0, [x1]
    40100fc4:	d53be021 	mrs	x1, cntpct_el0
    40100fc8:	2a2103e1 	mvn	w1, w1
    40100fcc:	4b010041 	sub	w1, w2, w1
    40100fd0:	6b01001f 	cmp	w0, w1
    40100fd4:	54ffff88 	b.hi	40100fc4 <udelay+0x1c>
    40100fd8:	d65f03c0 	ret

0000000040100fdc <mdelay>:
    40100fdc:	52807d01 	mov	w1, #0x3e8                 	// #1000
    40100fe0:	1b017c00 	mul	w0, w0, w1
    40100fe4:	17fffff1 	b	40100fa8 <udelay>

0000000040100fe8 <get_timer>:
    40100fe8:	35000080 	cbnz	w0, 40100ff8 <get_timer+0x10>
    40100fec:	d53be020 	mrs	x0, cntpct_el0
    40100ff0:	2a2003e0 	mvn	w0, w0
    40100ff4:	d65f03c0 	ret
    40100ff8:	d53be021 	mrs	x1, cntpct_el0
    40100ffc:	2a2103e1 	mvn	w1, w1
    40101000:	4b010000 	sub	w0, w0, w1
    40101004:	528c3501 	mov	w1, #0x61a8                	// #25000
    40101008:	1ac10800 	udiv	w0, w0, w1
    4010100c:	d65f03c0 	ret

0000000040101010 <read_count_tick>:
    40101010:	d53be020 	mrs	x0, cntpct_el0
    40101014:	d2800321 	mov	x1, #0x19                  	// #25
    40101018:	9ac10800 	udiv	x0, x0, x1
    4010101c:	d65f03c0 	ret

0000000040101020 <switch_el3_to_el2_ns>:
    40101020:	a9bd7bfd 	stp	x29, x30, [sp,#-48]!
    40101024:	aa0003e1 	mov	x1, x0
    40101028:	910003fd 	mov	x29, sp
    4010102c:	a90153f3 	stp	x19, x20, [sp,#16]
    40101030:	aa0003f4 	mov	x20, x0
    40101034:	f90013f5 	str	x21, [sp,#32]
    40101038:	90000060 	adrp	x0, 4010d000 <ddrc_init+0x19c>
    4010103c:	91280800 	add	x0, x0, #0xa02
    40101040:	9400009a 	bl	401012a8 <tf_printf>
    40101044:	d2807900 	mov	x0, #0x3c8                 	// #968
    40101048:	d51e4000 	msr	spsr_el3, x0
    4010104c:	d53e1100 	mrs	x0, scr_el3
    40101050:	d2808021 	mov	x1, #0x401                 	// #1025
    40101054:	aa010000 	orr	x0, x0, x1
    40101058:	d51e1100 	msr	scr_el3, x0
    4010105c:	d53c1100 	mrs	x0, hcr_el2
    40101060:	b2610000 	orr	x0, x0, #0x80000000
    40101064:	d51c1100 	msr	hcr_el2, x0
    40101068:	d2867fe0 	mov	x0, #0x33ff                	// #13311
    4010106c:	d51c1140 	msr	cptr_el2, x0
    40101070:	d2800060 	mov	x0, #0x3                   	// #3
    40101074:	d51ce100 	msr	cnthctl_el2, x0
    40101078:	d2800000 	mov	x0, #0x0                   	// #0
    4010107c:	d51ce060 	msr	cntvoff_el2, x0
    40101080:	d5380001 	mrs	x1, midr_el1
    40101084:	d51c0001 	msr	vpidr_el2, x1
    40101088:	d53800a1 	mrs	x1, mpidr_el1
    4010108c:	d51c00a1 	msr	vmpidr_el2, x1
    40101090:	d51c2100 	msr	vttbr_el2, x0
    40101094:	d53b9c01 	mrs	x1, pmcr_el0
    40101098:	d34b3c21 	ubfx	x1, x1, #11, #5
    4010109c:	d51c1121 	msr	mdcr_el2, x1
    401010a0:	d51c1160 	msr	hstr_el2, x0
    401010a4:	d51ce220 	msr	cnthp_ctl_el2, x0
    401010a8:	d2801093 	mov	x19, #0x84                  	// #132
    401010ac:	529e0020 	mov	w0, #0xf001                	// #61441
    401010b0:	f2a06013 	movk	x19, #0x300, lsl #16
    401010b4:	72b64000 	movk	w0, #0xb200, lsl #16
    401010b8:	b9000260 	str	w0, [x19]
    401010bc:	b0000060 	adrp	x0, 4010e000 <__func__.4151+0x10>
    401010c0:	f9466c15 	ldr	x21, [x0,#3288]
    401010c4:	97ffffd3 	bl	40101010 <read_count_tick>
    401010c8:	110f9c00 	add	w0, w0, #0x3e7
    401010cc:	52807d01 	mov	w1, #0x3e8                 	// #1000
    401010d0:	1ac10800 	udiv	w0, w0, w1
    401010d4:	39003aa0 	strb	w0, [x21,#14]
    401010d8:	d3483c00 	ubfx	x0, x0, #8, #8
    401010dc:	39003ea0 	strb	w0, [x21,#15]
    401010e0:	aa1403e0 	mov	x0, x20
    401010e4:	97fffbe2 	bl	4010006c <call_with_eret>
    401010e8:	f94013f5 	ldr	x21, [sp,#32]
    401010ec:	529e0040 	mov	w0, #0xf002                	// #61442
    401010f0:	72b64000 	movk	w0, #0xb200, lsl #16
    401010f4:	b9000260 	str	w0, [x19]
    401010f8:	a94153f3 	ldp	x19, x20, [sp,#16]
    401010fc:	a8c37bfd 	ldp	x29, x30, [sp],#48
    40101100:	d65f03c0 	ret

0000000040101104 <jump_to_monitor>:
    40101104:	a9bd7bfd 	stp	x29, x30, [sp,#-48]!
    40101108:	910003fd 	mov	x29, sp
    4010110c:	a90153f3 	stp	x19, x20, [sp,#16]
    40101110:	aa0003f4 	mov	x20, x0
    40101114:	90000080 	adrp	x0, 40111000 <__BSS_START__>
    40101118:	91000013 	add	x19, x0, #0x0
    4010111c:	f90013f5 	str	x21, [sp,#32]
    40101120:	aa0103f5 	mov	x21, x1
    40101124:	52800061 	mov	w1, #0x3                   	// #3
    40101128:	39000001 	strb	w1, [x0]
    4010112c:	52800020 	mov	w0, #0x1                   	// #1
    40101130:	39000660 	strb	w0, [x19,#1]
    40101134:	9100c260 	add	x0, x19, #0x30
    40101138:	f9001260 	str	x0, [x19,#32]
    4010113c:	91022260 	add	x0, x19, #0x88
    40101140:	f9000a60 	str	x0, [x19,#16]
    40101144:	b9408e60 	ldr	w0, [x19,#140]
    40101148:	9140c281 	add	x1, x20, #0x30, lsl #12
    4010114c:	b9009a7f 	str	wzr, [x19,#152]
    40101150:	121f7800 	and	w0, w0, #0xfffffffe
    40101154:	f9004a61 	str	x1, [x19,#144]
    40101158:	b9008e60 	str	w0, [x19,#140]
    4010115c:	90000060 	adrp	x0, 4010d000 <ddrc_init+0x19c>
    40101160:	f900527f 	str	xzr, [x19,#160]
    40101164:	9127a400 	add	x0, x0, #0x9e9
    40101168:	94000050 	bl	401012a8 <tf_printf>
    4010116c:	f9401260 	ldr	x0, [x19,#32]
    40101170:	b9400401 	ldr	w1, [x0,#4]
    40101174:	f9000415 	str	x21, [x0,#8]
    40101178:	32000021 	orr	w1, w1, #0x1
    4010117c:	f9000c1f 	str	xzr, [x0,#24]
    40101180:	b9000401 	str	w1, [x0,#4]
    40101184:	52807921 	mov	w1, #0x3c9                 	// #969
    40101188:	b9001001 	str	w1, [x0,#16]
    4010118c:	d28e0001 	mov	x1, #0x7000                	// #28672
    40101190:	f2a00061 	movk	x1, #0x3, lsl #16
    40101194:	d2a80200 	mov	x0, #0x40100000            	// #1074790400
    40101198:	94003186 	bl	4010d7b0 <flush_dcache_range>
    4010119c:	d5033fdf 	isb
    401011a0:	b0000060 	adrp	x0, 4010e000 <__func__.4151+0x10>
    401011a4:	f9466c15 	ldr	x21, [x0,#3288]
    401011a8:	97ffff9a 	bl	40101010 <read_count_tick>
    401011ac:	110f9c00 	add	w0, w0, #0x3e7
    401011b0:	52807d01 	mov	w1, #0x3e8                 	// #1000
    401011b4:	1ac10800 	udiv	w0, w0, w1
    401011b8:	aa1303e1 	mov	x1, x19
    401011bc:	39003aa0 	strb	w0, [x21,#14]
    401011c0:	d3483c00 	ubfx	x0, x0, #8, #8
    401011c4:	39003ea0 	strb	w0, [x21,#15]
    401011c8:	aa1403e0 	mov	x0, x20
    401011cc:	f94013f5 	ldr	x21, [sp,#32]
    401011d0:	a94153f3 	ldp	x19, x20, [sp,#16]
    401011d4:	a8c37bfd 	ldp	x29, x30, [sp],#48
    401011d8:	17fffbbb 	b	401000c4 <jump_bl31>

00000000401011dc <jump_to_loader_2nd>:
    401011dc:	17ffff91 	b	40101020 <switch_el3_to_el2_ns>

00000000401011e0 <bl2_smc_handler>:
    401011e0:	a9bf7bfd 	stp	x29, x30, [sp,#-16]!
    401011e4:	90000061 	adrp	x1, 4010d000 <ddrc_init+0x19c>
    401011e8:	90000060 	adrp	x0, 4010d000 <ddrc_init+0x19c>
    401011ec:	52802102 	mov	w2, #0x108                 	// #264
    401011f0:	910003fd 	mov	x29, sp
    401011f4:	91274021 	add	x1, x1, #0x9d0
    401011f8:	91278000 	add	x0, x0, #0x9e0
    401011fc:	9400002b 	bl	401012a8 <tf_printf>
    40101200:	14000000 	b	40101200 <bl2_smc_handler+0x20>

0000000040101204 <unsigned_num_print>:
    40101204:	a9bb7bfd 	stp	x29, x30, [sp,#-80]!
    40101208:	2a0103e1 	mov	w1, w1
    4010120c:	910003fd 	mov	x29, sp
    40101210:	a9025bf5 	stp	x21, x22, [sp,#32]
    40101214:	9100e3b6 	add	x22, x29, #0x38
    40101218:	2a0203f5 	mov	w21, w2
    4010121c:	a90153f3 	stp	x19, x20, [sp,#16]
    40101220:	d2800002 	mov	x2, #0x0                   	// #0
    40101224:	9ac10804 	udiv	x4, x0, x1
    40101228:	11000453 	add	w19, w2, #0x1
    4010122c:	9b018080 	msub	x0, x4, x1, x0
    40101230:	7100241f 	cmp	w0, #0x9
    40101234:	5400022c 	b.gt	40101278 <unsigned_num_print+0x74>
    40101238:	1100c000 	add	w0, w0, #0x30
    4010123c:	38226ac0 	strb	w0, [x22,x2]
    40101240:	aa0403e0 	mov	x0, x4
    40101244:	91000442 	add	x2, x2, #0x1
    40101248:	b5fffee4 	cbnz	x4, 40101224 <unsigned_num_print+0x20>
    4010124c:	4b130074 	sub	w20, w3, w19
    40101250:	7100029f 	cmp	w20, #0x0
    40101254:	5400016c 	b.gt	40101280 <unsigned_num_print+0x7c>
    40101258:	51000673 	sub	w19, w19, #0x1
    4010125c:	93407e73 	sxtw	x19, w19
    40101260:	3100067f 	cmn	w19, #0x1
    40101264:	54000181 	b.ne	40101294 <unsigned_num_print+0x90>
    40101268:	a94153f3 	ldp	x19, x20, [sp,#16]
    4010126c:	a9425bf5 	ldp	x21, x22, [sp,#32]
    40101270:	a8c57bfd 	ldp	x29, x30, [sp],#80
    40101274:	d65f03c0 	ret
    40101278:	11015c00 	add	w0, w0, #0x57
    4010127c:	17fffff0 	b	4010123c <unsigned_num_print+0x38>
    40101280:	2a1503e1 	mov	w1, w21
    40101284:	52800600 	mov	w0, #0x30                  	// #48
    40101288:	51000694 	sub	w20, w20, #0x1
    4010128c:	940003f0 	bl	4010224c <putchar_l>
    40101290:	17fffff0 	b	40101250 <unsigned_num_print+0x4c>
    40101294:	38736ac0 	ldrb	w0, [x22,x19]
    40101298:	2a1503e1 	mov	w1, w21
    4010129c:	d1000673 	sub	x19, x19, #0x1
    401012a0:	940003eb 	bl	4010224c <putchar_l>
    401012a4:	17ffffef 	b	40101260 <unsigned_num_print+0x5c>

00000000401012a8 <tf_printf>:
    401012a8:	a9b67bfd 	stp	x29, x30, [sp,#-160]!
    401012ac:	910003fd 	mov	x29, sp
    401012b0:	a90153f3 	stp	x19, x20, [sp,#16]
    401012b4:	aa0003f3 	mov	x19, x0
    401012b8:	a9025bf5 	stp	x21, x22, [sp,#32]
    401012bc:	a90363f7 	stp	x23, x24, [sp,#48]
    401012c0:	a9068ba1 	stp	x1, x2, [x29,#104]
    401012c4:	a90793a3 	stp	x3, x4, [x29,#120]
    401012c8:	a9089ba5 	stp	x5, x6, [x29,#136]
    401012cc:	f9004fa7 	str	x7, [x29,#152]
    401012d0:	b4000500 	cbz	x0, 40101370 <tf_printf+0xc8>
    401012d4:	39400014 	ldrb	w20, [x0]
    401012d8:	7100069f 	cmp	w20, #0x1
    401012dc:	540004a1 	b.ne	40101370 <tf_printf+0xc8>
    401012e0:	39400400 	ldrb	w0, [x0,#1]
    401012e4:	340000c0 	cbz	w0, 401012fc <tf_printf+0x54>
    401012e8:	5100c000 	sub	w0, w0, #0x30
    401012ec:	7100101f 	cmp	w0, #0x4
    401012f0:	54000068 	b.hi	401012fc <tf_printf+0x54>
    401012f4:	2a0003f4 	mov	w20, w0
    401012f8:	91000a73 	add	x19, x19, #0x2
    401012fc:	910283a0 	add	x0, x29, #0xa0
    40101300:	a90403a0 	stp	x0, x0, [x29,#64]
    40101304:	910183a0 	add	x0, x29, #0x60
    40101308:	90000075 	adrp	x21, 4010d000 <ddrc_init+0x19c>
    4010130c:	f9002ba0 	str	x0, [x29,#80]
    40101310:	128006e0 	mov	w0, #0xffffffc8            	// #-56
    40101314:	b9005fbf 	str	wzr, [x29,#92]
    40101318:	b9005ba0 	str	w0, [x29,#88]
    4010131c:	39400260 	ldrb	w0, [x19]
    40101320:	340001e0 	cbz	w0, 4010135c <tf_printf+0xb4>
    40101324:	7100941f 	cmp	w0, #0x25
    40101328:	91000673 	add	x19, x19, #0x1
    4010132c:	54001921 	b.ne	40101650 <tf_printf+0x3a8>
    40101330:	52800002 	mov	w2, #0x0                   	// #0
    40101334:	52800016 	mov	w22, #0x0                   	// #0
    40101338:	39400260 	ldrb	w0, [x19]
    4010133c:	7101c01f 	cmp	w0, #0x70
    40101340:	54000ce0 	b.eq	401014dc <tf_printf+0x234>
    40101344:	54000288 	b.hi	40101394 <tf_printf+0xec>
    40101348:	7101901f 	cmp	w0, #0x64
    4010134c:	54000600 	b.eq	4010140c <tf_printf+0x164>
    40101350:	54000148 	b.hi	40101378 <tf_printf+0xd0>
    40101354:	7100c01f 	cmp	w0, #0x30
    40101358:	540004c0 	b.eq	401013f0 <tf_printf+0x148>
    4010135c:	a94153f3 	ldp	x19, x20, [sp,#16]
    40101360:	a9425bf5 	ldp	x21, x22, [sp,#32]
    40101364:	a94363f7 	ldp	x23, x24, [sp,#48]
    40101368:	a8ca7bfd 	ldp	x29, x30, [sp],#160
    4010136c:	d65f03c0 	ret
    40101370:	52800034 	mov	w20, #0x1                   	// #1
    40101374:	17ffffe2 	b	401012fc <tf_printf+0x54>
    40101378:	7101a41f 	cmp	w0, #0x69
    4010137c:	54000480 	b.eq	4010140c <tf_printf+0x164>
    40101380:	7101b01f 	cmp	w0, #0x6c
    40101384:	54fffec1 	b.ne	4010135c <tf_printf+0xb4>
    40101388:	11000442 	add	w2, w2, #0x1
    4010138c:	91000673 	add	x19, x19, #0x1
    40101390:	17ffffea 	b	40101338 <tf_printf+0x90>
    40101394:	7101d41f 	cmp	w0, #0x75
    40101398:	540011e0 	b.eq	401015d4 <tf_printf+0x32c>
    4010139c:	540001c8 	b.hi	401013d4 <tf_printf+0x12c>
    401013a0:	7101cc1f 	cmp	w0, #0x73
    401013a4:	54fffdc1 	b.ne	4010135c <tf_printf+0xb4>
    401013a8:	b9405ba1 	ldr	w1, [x29,#88]
    401013ac:	f94023a0 	ldr	x0, [x29,#64]
    401013b0:	37f80801 	tbnz	w1, #31, 401014b0 <tf_printf+0x208>
    401013b4:	91003c01 	add	x1, x0, #0xf
    401013b8:	927df021 	and	x1, x1, #0xfffffffffffffff8
    401013bc:	f90023a1 	str	x1, [x29,#64]
    401013c0:	f9400016 	ldr	x22, [x0]
    401013c4:	394002c0 	ldrb	w0, [x22]
    401013c8:	35000820 	cbnz	w0, 401014cc <tf_printf+0x224>
    401013cc:	91000673 	add	x19, x19, #0x1
    401013d0:	17ffffd3 	b	4010131c <tf_printf+0x74>
    401013d4:	7101e01f 	cmp	w0, #0x78
    401013d8:	54000ba0 	b.eq	4010154c <tf_printf+0x2a4>
    401013dc:	7101e81f 	cmp	w0, #0x7a
    401013e0:	54fffbe1 	b.ne	4010135c <tf_printf+0xb4>
    401013e4:	91000673 	add	x19, x19, #0x1
    401013e8:	52800042 	mov	w2, #0x2                   	// #2
    401013ec:	17ffffd3 	b	40101338 <tf_printf+0x90>
    401013f0:	39400660 	ldrb	w0, [x19,#1]
    401013f4:	91000a73 	add	x19, x19, #0x2
    401013f8:	5100c000 	sub	w0, w0, #0x30
    401013fc:	12001c01 	and	w1, w0, #0xff
    40101400:	7100243f 	cmp	w1, #0x9
    40101404:	1a8082d6 	csel	w22, w22, w0, hi
    40101408:	17ffffcc 	b	40101338 <tf_printf+0x90>
    4010140c:	7100045f 	cmp	w2, #0x1
    40101410:	b9405ba1 	ldr	w1, [x29,#88]
    40101414:	f94023a0 	ldr	x0, [x29,#64]
    40101418:	540001ed 	b.le	40101454 <tf_printf+0x1ac>
    4010141c:	37f802a1 	tbnz	w1, #31, 40101470 <tf_printf+0x1c8>
    40101420:	91003c01 	add	x1, x0, #0xf
    40101424:	927df021 	and	x1, x1, #0xfffffffffffffff8
    40101428:	f90023a1 	str	x1, [x29,#64]
    4010142c:	f9400017 	ldr	x23, [x0]
    40101430:	b6f803d7 	tbz	x23, #63, 401014a8 <tf_printf+0x200>
    40101434:	2a1403e1 	mov	w1, w20
    40101438:	528005a0 	mov	w0, #0x2d                  	// #45
    4010143c:	94000384 	bl	4010224c <putchar_l>
    40101440:	cb1703e0 	neg	x0, x23
    40101444:	2a1603e3 	mov	w3, w22
    40101448:	2a1403e2 	mov	w2, w20
    4010144c:	52800141 	mov	w1, #0xa                   	// #10
    40101450:	14000032 	b	40101518 <tf_printf+0x270>
    40101454:	35fffe42 	cbnz	w2, 4010141c <tf_printf+0x174>
    40101458:	37f801a1 	tbnz	w1, #31, 4010148c <tf_printf+0x1e4>
    4010145c:	91002c01 	add	x1, x0, #0xb
    40101460:	927df021 	and	x1, x1, #0xfffffffffffffff8
    40101464:	f90023a1 	str	x1, [x29,#64]
    40101468:	b9800017 	ldrsw	x23, [x0]
    4010146c:	17fffff1 	b	40101430 <tf_printf+0x188>
    40101470:	11002022 	add	w2, w1, #0x8
    40101474:	b9005ba2 	str	w2, [x29,#88]
    40101478:	7100005f 	cmp	w2, #0x0
    4010147c:	54fffd2c 	b.gt	40101420 <tf_printf+0x178>
    40101480:	f94027a0 	ldr	x0, [x29,#72]
    40101484:	8b21c000 	add	x0, x0, w1, sxtw
    40101488:	17ffffe9 	b	4010142c <tf_printf+0x184>
    4010148c:	11002022 	add	w2, w1, #0x8
    40101490:	b9005ba2 	str	w2, [x29,#88]
    40101494:	7100005f 	cmp	w2, #0x0
    40101498:	54fffe2c 	b.gt	4010145c <tf_printf+0x1b4>
    4010149c:	f94027a0 	ldr	x0, [x29,#72]
    401014a0:	8b21c000 	add	x0, x0, w1, sxtw
    401014a4:	17fffff1 	b	40101468 <tf_printf+0x1c0>
    401014a8:	aa1703e0 	mov	x0, x23
    401014ac:	17ffffe6 	b	40101444 <tf_printf+0x19c>
    401014b0:	11002022 	add	w2, w1, #0x8
    401014b4:	b9005ba2 	str	w2, [x29,#88]
    401014b8:	7100005f 	cmp	w2, #0x0
    401014bc:	54fff7cc 	b.gt	401013b4 <tf_printf+0x10c>
    401014c0:	f94027a0 	ldr	x0, [x29,#72]
    401014c4:	8b21c000 	add	x0, x0, w1, sxtw
    401014c8:	17ffffbe 	b	401013c0 <tf_printf+0x118>
    401014cc:	910006d6 	add	x22, x22, #0x1
    401014d0:	2a1403e1 	mov	w1, w20
    401014d4:	9400035e 	bl	4010224c <putchar_l>
    401014d8:	17ffffbb 	b	401013c4 <tf_printf+0x11c>
    401014dc:	b9405ba1 	ldr	w1, [x29,#88]
    401014e0:	f94023a0 	ldr	x0, [x29,#64]
    401014e4:	37f801e1 	tbnz	w1, #31, 40101520 <tf_printf+0x278>
    401014e8:	91003c01 	add	x1, x0, #0xf
    401014ec:	927df021 	and	x1, x1, #0xfffffffffffffff8
    401014f0:	f90023a1 	str	x1, [x29,#64]
    401014f4:	f9400018 	ldr	x24, [x0]
    401014f8:	b4000098 	cbz	x24, 40101508 <tf_printf+0x260>
    401014fc:	91287eb7 	add	x23, x21, #0xa1f
    40101500:	394002e0 	ldrb	w0, [x23]
    40101504:	350001c0 	cbnz	w0, 4010153c <tf_printf+0x294>
    40101508:	2a1603e3 	mov	w3, w22
    4010150c:	2a1403e2 	mov	w2, w20
    40101510:	aa1803e0 	mov	x0, x24
    40101514:	52800201 	mov	w1, #0x10                  	// #16
    40101518:	97ffff3b 	bl	40101204 <unsigned_num_print>
    4010151c:	17ffffac 	b	401013cc <tf_printf+0x124>
    40101520:	11002022 	add	w2, w1, #0x8
    40101524:	b9005ba2 	str	w2, [x29,#88]
    40101528:	7100005f 	cmp	w2, #0x0
    4010152c:	54fffdec 	b.gt	401014e8 <tf_printf+0x240>
    40101530:	f94027a0 	ldr	x0, [x29,#72]
    40101534:	8b21c000 	add	x0, x0, w1, sxtw
    40101538:	17ffffef 	b	401014f4 <tf_printf+0x24c>
    4010153c:	910006f7 	add	x23, x23, #0x1
    40101540:	2a1403e1 	mov	w1, w20
    40101544:	94000342 	bl	4010224c <putchar_l>
    40101548:	17ffffee 	b	40101500 <tf_printf+0x258>
    4010154c:	7100045f 	cmp	w2, #0x1
    40101550:	b9405ba1 	ldr	w1, [x29,#88]
    40101554:	f94023a0 	ldr	x0, [x29,#64]
    40101558:	5400014d 	b.le	40101580 <tf_printf+0x2d8>
    4010155c:	37f80201 	tbnz	w1, #31, 4010159c <tf_printf+0x2f4>
    40101560:	91003c01 	add	x1, x0, #0xf
    40101564:	927df021 	and	x1, x1, #0xfffffffffffffff8
    40101568:	f90023a1 	str	x1, [x29,#64]
    4010156c:	f9400000 	ldr	x0, [x0]
    40101570:	2a1603e3 	mov	w3, w22
    40101574:	2a1403e2 	mov	w2, w20
    40101578:	52800201 	mov	w1, #0x10                  	// #16
    4010157c:	17ffffe7 	b	40101518 <tf_printf+0x270>
    40101580:	35fffee2 	cbnz	w2, 4010155c <tf_printf+0x2b4>
    40101584:	37f801a1 	tbnz	w1, #31, 401015b8 <tf_printf+0x310>
    40101588:	91002c01 	add	x1, x0, #0xb
    4010158c:	927df021 	and	x1, x1, #0xfffffffffffffff8
    40101590:	f90023a1 	str	x1, [x29,#64]
    40101594:	b9400000 	ldr	w0, [x0]
    40101598:	17fffff6 	b	40101570 <tf_printf+0x2c8>
    4010159c:	11002022 	add	w2, w1, #0x8
    401015a0:	b9005ba2 	str	w2, [x29,#88]
    401015a4:	7100005f 	cmp	w2, #0x0
    401015a8:	54fffdcc 	b.gt	40101560 <tf_printf+0x2b8>
    401015ac:	f94027a0 	ldr	x0, [x29,#72]
    401015b0:	8b21c000 	add	x0, x0, w1, sxtw
    401015b4:	17ffffee 	b	4010156c <tf_printf+0x2c4>
    401015b8:	11002022 	add	w2, w1, #0x8
    401015bc:	b9005ba2 	str	w2, [x29,#88]
    401015c0:	7100005f 	cmp	w2, #0x0
    401015c4:	54fffe2c 	b.gt	40101588 <tf_printf+0x2e0>
    401015c8:	f94027a0 	ldr	x0, [x29,#72]
    401015cc:	8b21c000 	add	x0, x0, w1, sxtw
    401015d0:	17fffff1 	b	40101594 <tf_printf+0x2ec>
    401015d4:	7100045f 	cmp	w2, #0x1
    401015d8:	b9405ba0 	ldr	w0, [x29,#88]
    401015dc:	f94023a1 	ldr	x1, [x29,#64]
    401015e0:	540000ed 	b.le	401015fc <tf_printf+0x354>
    401015e4:	37f801a0 	tbnz	w0, #31, 40101618 <tf_printf+0x370>
    401015e8:	91003c20 	add	x0, x1, #0xf
    401015ec:	927df000 	and	x0, x0, #0xfffffffffffffff8
    401015f0:	f90023a0 	str	x0, [x29,#64]
    401015f4:	f9400020 	ldr	x0, [x1]
    401015f8:	17ffff93 	b	40101444 <tf_printf+0x19c>
    401015fc:	35ffff42 	cbnz	w2, 401015e4 <tf_printf+0x33c>
    40101600:	37f801a0 	tbnz	w0, #31, 40101634 <tf_printf+0x38c>
    40101604:	91002c20 	add	x0, x1, #0xb
    40101608:	927df000 	and	x0, x0, #0xfffffffffffffff8
    4010160c:	f90023a0 	str	x0, [x29,#64]
    40101610:	b9400020 	ldr	w0, [x1]
    40101614:	17ffff8c 	b	40101444 <tf_printf+0x19c>
    40101618:	11002002 	add	w2, w0, #0x8
    4010161c:	b9005ba2 	str	w2, [x29,#88]
    40101620:	7100005f 	cmp	w2, #0x0
    40101624:	54fffe2c 	b.gt	401015e8 <tf_printf+0x340>
    40101628:	f94027a1 	ldr	x1, [x29,#72]
    4010162c:	8b20c021 	add	x1, x1, w0, sxtw
    40101630:	17fffff1 	b	401015f4 <tf_printf+0x34c>
    40101634:	11002002 	add	w2, w0, #0x8
    40101638:	b9005ba2 	str	w2, [x29,#88]
    4010163c:	7100005f 	cmp	w2, #0x0
    40101640:	54fffe2c 	b.gt	40101604 <tf_printf+0x35c>
    40101644:	f94027a1 	ldr	x1, [x29,#72]
    40101648:	8b20c021 	add	x1, x1, w0, sxtw
    4010164c:	17fffff1 	b	40101610 <tf_printf+0x368>
    40101650:	2a1403e1 	mov	w1, w20
    40101654:	940002fe 	bl	4010224c <putchar_l>
    40101658:	17ffff31 	b	4010131c <tf_printf+0x74>

000000004010165c <__system_reset>:
    4010165c:	a9be7bfd 	stp	x29, x30, [sp,#-32]!
    40101660:	529c0062 	mov	w2, #0xe003                	// #57347
    40101664:	72b7c002 	movk	w2, #0xbe00, lsl #16
    40101668:	910003fd 	mov	x29, sp
    4010166c:	a90153f3 	stp	x19, x20, [sp,#16]
    40101670:	d2800213 	mov	x19, #0x10                  	// #16
    40101674:	f2a1c013 	movk	x19, #0xe00, lsl #16
    40101678:	d2801094 	mov	x20, #0x84                  	// #132
    4010167c:	f2a06014 	movk	x20, #0x300, lsl #16
    40101680:	b9000262 	str	w2, [x19]
    40101684:	2a0103e2 	mov	w2, w1
    40101688:	aa0003e1 	mov	x1, x0
    4010168c:	90000060 	adrp	x0, 4010d000 <ddrc_init+0x19c>
    40101690:	91288800 	add	x0, x0, #0xa22
    40101694:	97ffff05 	bl	401012a8 <tf_printf>
    40101698:	940030a3 	bl	4010d924 <console_flush>
    4010169c:	52860020 	mov	w0, #0x3001                	// #12289
    401016a0:	72b7c000 	movk	w0, #0xbe00, lsl #16
    401016a4:	b9000280 	str	w0, [x20]
    401016a8:	52827100 	mov	w0, #0x1388                	// #5000
    401016ac:	97fffe4c 	bl	40100fdc <mdelay>
    401016b0:	d28c1c01 	mov	x1, #0x60e0                	// #24800
    401016b4:	52800020 	mov	w0, #0x1                   	// #1
    401016b8:	f2a0a041 	movk	x1, #0x502, lsl #16
    401016bc:	b9000020 	str	w0, [x1]
    401016c0:	d28c1901 	mov	x1, #0x60c8                	// #24776
    401016c4:	f2a0a041 	movk	x1, #0x502, lsl #16
    401016c8:	b9000020 	str	w0, [x1]
    401016cc:	52860040 	mov	w0, #0x3002                	// #12290
    401016d0:	72b7c000 	movk	w0, #0xbe00, lsl #16
    401016d4:	b9000280 	str	w0, [x20]
    401016d8:	52800c80 	mov	w0, #0x64                  	// #100
    401016dc:	97fffe33 	bl	40100fa8 <udelay>
    401016e0:	d28a1580 	mov	x0, #0x50ac                	// #20652
    401016e4:	52956301 	mov	w1, #0xab18                	// #43800
    401016e8:	f2a0a040 	movk	x0, #0x502, lsl #16
    401016ec:	52800cc2 	mov	w2, #0x66                  	// #102
    401016f0:	b900001f 	str	wzr, [x0]
    401016f4:	d28a0080 	mov	x0, #0x5004                	// #20484
    401016f8:	f2a0a040 	movk	x0, #0x502, lsl #16
    401016fc:	91001000 	add	x0, x0, #0x4
    40101700:	b81fc001 	stur	w1, [x0,#-4]
    40101704:	320a83e1 	mov	w1, #0x400040              	// #4194368
    40101708:	b9000001 	str	w1, [x0]
    4010170c:	d2800081 	mov	x1, #0x4                   	// #4
    40101710:	f2a06021 	movk	x1, #0x301, lsl #16
    40101714:	b9000022 	str	w2, [x1]
    40101718:	52800402 	mov	w2, #0x20                  	// #32
    4010171c:	b9001822 	str	w2, [x1,#24]
    40101720:	d2800181 	mov	x1, #0xc                   	// #12
    40101724:	f2a06021 	movk	x1, #0x301, lsl #16
    40101728:	52800ec2 	mov	w2, #0x76                  	// #118
    4010172c:	b9000022 	str	w2, [x1]
    40101730:	d2a06021 	mov	x1, #0x3010000             	// #50397184
    40101734:	52800222 	mov	w2, #0x11                  	// #17
    40101738:	b9000022 	str	w2, [x1]
    4010173c:	d2a1c001 	mov	x1, #0xe000000             	// #234881024
    40101740:	39400c21 	ldrb	w1, [x1,#3]
    40101744:	36300161 	tbz	w1, #6, 40101770 <__system_reset+0x114>
    40101748:	529c0081 	mov	w1, #0xe004                	// #57348
    4010174c:	d28c1a82 	mov	x2, #0x60d4                	// #24788
    40101750:	72b7c001 	movk	w1, #0xbe00, lsl #16
    40101754:	f2a0a042 	movk	x2, #0x502, lsl #16
    40101758:	b9000261 	str	w1, [x19]
    4010175c:	b9400041 	ldr	w1, [x2]
    40101760:	71000c3f 	cmp	w1, #0x3
    40101764:	54ffffc1 	b.ne	4010175c <__system_reset+0x100>
    40101768:	320d83e1 	mov	w1, #0x80008               	// #524296
    4010176c:	b9000001 	str	w1, [x0]
    40101770:	14000000 	b	40101770 <__system_reset+0x114>

0000000040101774 <panic_handler>:
    40101774:	a9bf7bfd 	stp	x29, x30, [sp,#-16]!
    40101778:	d2800200 	mov	x0, #0x10                  	// #16
    4010177c:	f2a1c000 	movk	x0, #0xe00, lsl #16
    40101780:	529c0042 	mov	w2, #0xe002                	// #57346
    40101784:	910003fd 	mov	x29, sp
    40101788:	72b7c002 	movk	w2, #0xbe00, lsl #16
    4010178c:	b9000002 	str	w2, [x0]
    40101790:	b900041e 	str	w30, [x0,#4]
    40101794:	aa1e03e1 	mov	x1, x30
    40101798:	90000060 	adrp	x0, 4010d000 <ddrc_init+0x19c>
    4010179c:	9128d000 	add	x0, x0, #0xa34
    401017a0:	97fffec2 	bl	401012a8 <tf_printf>
    401017a4:	90000060 	adrp	x0, 4010d000 <ddrc_init+0x19c>
    401017a8:	12800001 	mov	w1, #0xffffffff            	// #-1
    401017ac:	91290c00 	add	x0, x0, #0xa43
    401017b0:	97ffffab 	bl	4010165c <__system_reset>

00000000401017b4 <reset_c906l>:
    401017b4:	a9be7bfd 	stp	x29, x30, [sp,#-32]!
    401017b8:	910003fd 	mov	x29, sp
    401017bc:	f9000bf3 	str	x19, [sp,#16]
    401017c0:	aa0003f3 	mov	x19, x0
    401017c4:	90000060 	adrp	x0, 4010d000 <ddrc_init+0x19c>
    401017c8:	91292400 	add	x0, x0, #0xa49
    401017cc:	97fffeb7 	bl	401012a8 <tf_printf>
    401017d0:	d2860481 	mov	x1, #0x3024                	// #12324
    401017d4:	d2800082 	mov	x2, #0x4                   	// #4
    401017d8:	f2a06001 	movk	x1, #0x300, lsl #16
    401017dc:	f2a04162 	movk	x2, #0x20b, lsl #16
    401017e0:	b9400020 	ldr	w0, [x1]
    401017e4:	12197800 	and	w0, w0, #0xffffffbf
    401017e8:	b9000020 	str	w0, [x1]
    401017ec:	b9400040 	ldr	w0, [x2]
    401017f0:	32130000 	orr	w0, w0, #0x2000
    401017f4:	b9000040 	str	w0, [x2]
    401017f8:	d2800400 	mov	x0, #0x20                  	// #32
    401017fc:	f2a04160 	movk	x0, #0x20b, lsl #16
    40101800:	b9000013 	str	w19, [x0]
    40101804:	d360fe73 	lsr	x19, x19, #32
    40101808:	b9000413 	str	w19, [x0,#4]
    4010180c:	f9400bf3 	ldr	x19, [sp,#16]
    40101810:	b9400020 	ldr	w0, [x1]
    40101814:	321a0000 	orr	w0, w0, #0x40
    40101818:	b9000020 	str	w0, [x1]
    4010181c:	a8c27bfd 	ldp	x29, x30, [sp],#32
    40101820:	d65f03c0 	ret

0000000040101824 <setup_dl_flag>:
    40101824:	a9bf7bfd 	stp	x29, x30, [sp,#-16]!
    40101828:	910003fd 	mov	x29, sp
    4010182c:	97fbf9fd 	bl	40000020 <p_rom_api_get_boot_src>
    40101830:	5299d461 	mov	w1, #0xcea3                	// #52899
    40101834:	6b01001f 	cmp	w0, w1
    40101838:	d2800081 	mov	x1, #0x4                   	// #4
    4010183c:	f2a1c001 	movk	x1, #0xe00, lsl #16
    40101840:	540001c0 	b.eq	40101878 <setup_dl_flag+0x54>
    40101844:	5299d4a2 	mov	w2, #0xcea5                	// #52901
    40101848:	6b02001f 	cmp	w0, w2
    4010184c:	540000c0 	b.eq	40101864 <setup_dl_flag+0x40>
    40101850:	5299d402 	mov	w2, #0xcea0                	// #52896
    40101854:	6b02001f 	cmp	w0, w2
    40101858:	540000a1 	b.ne	4010186c <setup_dl_flag+0x48>
    4010185c:	5289c640 	mov	w0, #0x4e32                	// #20018
    40101860:	14000002 	b	40101868 <setup_dl_flag+0x44>
    40101864:	5289c660 	mov	w0, #0x4e33                	// #20019
    40101868:	72a9a8e0 	movk	w0, #0x4d47, lsl #16
    4010186c:	b9000020 	str	w0, [x1]
    40101870:	a8c17bfd 	ldp	x29, x30, [sp],#16
    40101874:	d65f03c0 	ret
    40101878:	5289c620 	mov	w0, #0x4e31                	// #20017
    4010187c:	17fffffb 	b	40101868 <setup_dl_flag+0x44>

0000000040101880 <config_core_power>:
    40101880:	d2a060c1 	mov	x1, #0x3060000             	// #50724864
    40101884:	b9000020 	str	w0, [x1]
    40101888:	d2800080 	mov	x0, #0x4                   	// #4
    4010188c:	f2a060c0 	movk	x0, #0x306, lsl #16
    40101890:	52800c81 	mov	w1, #0x64                  	// #100
    40101894:	b9000001 	str	w1, [x0]
    40101898:	d2821d80 	mov	x0, #0x10ec                	// #4332
    4010189c:	f2a06000 	movk	x0, #0x300, lsl #16
    401018a0:	d2800881 	mov	x1, #0x44                  	// #68
    401018a4:	f2a060c1 	movk	x1, #0x306, lsl #16
    401018a8:	b900001f 	str	wzr, [x0]
    401018ac:	52800020 	mov	w0, #0x1                   	// #1
    401018b0:	b9000020 	str	w0, [x1]
    401018b4:	b9008c20 	str	w0, [x1,#140]
    401018b8:	52800140 	mov	w0, #0xa                   	// #10
    401018bc:	17fffdc8 	b	40100fdc <mdelay>

00000000401018c0 <sys_switch_all_to_pll>:
    401018c0:	d2840600 	mov	x0, #0x2030                	// #8240
    401018c4:	f2a06000 	movk	x0, #0x300, lsl #16
    401018c8:	b900001f 	str	wzr, [x0]
    401018cc:	b900041f 	str	wzr, [x0,#4]
    401018d0:	d65f03c0 	ret

00000000401018d4 <sys_pll_od>:
    401018d4:	a9bc7bfd 	stp	x29, x30, [sp,#-64]!
    401018d8:	52a493e0 	mov	w0, #0x249f0000            	// #614400000
    401018dc:	910003fd 	mov	x29, sp
    401018e0:	f9000bf3 	str	x19, [sp,#16]
    401018e4:	b90023a0 	str	w0, [x29,#32]
    401018e8:	5282e8c0 	mov	w0, #0x1746                	// #5958
    401018ec:	72a48ba0 	movk	w0, #0x245d, lsl #16
    401018f0:	290483a0 	stp	w0, w0, [x29,#36]
    401018f4:	52925480 	mov	w0, #0x92a4                	// #37540
    401018f8:	72a45e60 	movk	w0, #0x22f3, lsl #16
    401018fc:	b9002fa0 	str	w0, [x29,#44]
    40101900:	52904020 	mov	w0, #0x8201                	// #33281
    40101904:	72a00400 	movk	w0, #0x20, lsl #16
    40101908:	b90033a0 	str	w0, [x29,#48]
    4010190c:	52902020 	mov	w0, #0x8101                	// #33025
    40101910:	72a00300 	movk	w0, #0x18, lsl #16
    40101914:	b90037a0 	str	w0, [x29,#52]
    40101918:	52904020 	mov	w0, #0x8201                	// #33281
    4010191c:	72a00600 	movk	w0, #0x30, lsl #16
    40101920:	b9003ba0 	str	w0, [x29,#56]
    40101924:	52902020 	mov	w0, #0x8101                	// #33025
    40101928:	72a00280 	movk	w0, #0x14, lsl #16
    4010192c:	b9003fa0 	str	w0, [x29,#60]
    40101930:	90000060 	adrp	x0, 4010d000 <ddrc_init+0x19c>
    40101934:	912b5c00 	add	x0, x0, #0xad7
    40101938:	97fffe5c 	bl	401012a8 <tf_printf>
    4010193c:	52800b00 	mov	w0, #0x58                  	// #88
    40101940:	97ffffd0 	bl	40101880 <config_core_power>
    40101944:	d2840600 	mov	x0, #0x2030                	// #8240
    40101948:	12800001 	mov	w1, #0xffffffff            	// #-1
    4010194c:	f2a06000 	movk	x0, #0x300, lsl #16
    40101950:	52902022 	mov	w2, #0x8101                	// #33025
    40101954:	72a0a902 	movk	w2, #0x548, lsl #16
    40101958:	d2850183 	mov	x3, #0x280c                	// #10252
    4010195c:	b9400013 	ldr	w19, [x0]
    40101960:	910083a5 	add	x5, x29, #0x20
    40101964:	b9000001 	str	w1, [x0]
    40101968:	d2840681 	mov	x1, #0x2034                	// #8244
    4010196c:	f2a06001 	movk	x1, #0x300, lsl #16
    40101970:	528007e0 	mov	w0, #0x3f                  	// #63
    40101974:	9100c3a4 	add	x4, x29, #0x30
    40101978:	f2a06003 	movk	x3, #0x300, lsl #16
    4010197c:	b9000020 	str	w0, [x1]
    40101980:	91208021 	add	x1, x1, #0x820
    40101984:	b81b4022 	stur	w2, [x1,#-76]
    40101988:	b81ec020 	stur	w0, [x1,#-20]
    4010198c:	d2800000 	mov	x0, #0x0                   	// #0
    40101990:	b8656802 	ldr	w2, [x0,x5]
    40101994:	91004021 	add	x1, x1, #0x10
    40101998:	b81f0022 	stur	w2, [x1,#-16]
    4010199c:	b85ec022 	ldur	w2, [x1,#-20]
    401019a0:	121b7842 	and	w2, w2, #0xffffffef
    401019a4:	32000042 	orr	w2, w2, #0x1
    401019a8:	b81ec022 	stur	w2, [x1,#-20]
    401019ac:	b8646802 	ldr	w2, [x0,x4]
    401019b0:	b8236802 	str	w2, [x0,x3]
    401019b4:	91001000 	add	x0, x0, #0x4
    401019b8:	f100401f 	cmp	x0, #0x10
    401019bc:	54fffea1 	b.ne	40101990 <sys_pll_od+0xbc>
    401019c0:	d2850001 	mov	x1, #0x2800                	// #10240
    401019c4:	529dddc2 	mov	w2, #0xeeee                	// #61166
    401019c8:	f2a06001 	movk	x1, #0x300, lsl #16
    401019cc:	72bfffc2 	movk	w2, #0xfffe, lsl #16
    401019d0:	52800123 	mov	w3, #0x9                   	// #9
    401019d4:	b9400020 	ldr	w0, [x1]
    401019d8:	72a00083 	movk	w3, #0x4, lsl #16
    401019dc:	0a020000 	and	w0, w0, w2
    401019e0:	b9000020 	str	w0, [x1]
    401019e4:	d2852100 	mov	x0, #0x2908                	// #10504
    401019e8:	52902021 	mov	w1, #0x8101                	// #33025
    401019ec:	f2a06000 	movk	x0, #0x300, lsl #16
    401019f0:	72a0aa01 	movk	w1, #0x550, lsl #16
    401019f4:	d2840a82 	mov	x2, #0x2054                	// #8276
    401019f8:	b9000001 	str	w1, [x0]
    401019fc:	d2840800 	mov	x0, #0x2040                	// #8256
    40101a00:	f2a06000 	movk	x0, #0x300, lsl #16
    40101a04:	52806121 	mov	w1, #0x309                 	// #777
    40101a08:	72a00021 	movk	w1, #0x1, lsl #16
    40101a0c:	f2a06002 	movk	x2, #0x300, lsl #16
    40101a10:	b9000001 	str	w1, [x0]
    40101a14:	52802121 	mov	w1, #0x109                 	// #265
    40101a18:	72a00021 	movk	w1, #0x1, lsl #16
    40101a1c:	b900f801 	str	w1, [x0,#248]
    40101a20:	52902021 	mov	w1, #0x8101                	// #33025
    40101a24:	72a0ee01 	movk	w1, #0x770, lsl #16
    40101a28:	b908cc01 	str	w1, [x0,#2252]
    40101a2c:	d2840901 	mov	x1, #0x2048                	// #8264
    40101a30:	52800120 	mov	w0, #0x9                   	// #9
    40101a34:	f2a06001 	movk	x1, #0x300, lsl #16
    40101a38:	72a00060 	movk	w0, #0x3, lsl #16
    40101a3c:	b9000020 	str	w0, [x1]
    40101a40:	52800121 	mov	w1, #0x9                   	// #9
    40101a44:	72a00041 	movk	w1, #0x2, lsl #16
    40101a48:	b9000041 	str	w1, [x2]
    40101a4c:	b9001043 	str	w3, [x2,#16]
    40101a50:	11410063 	add	w3, w3, #0x40, lsl #12
    40101a54:	b9003443 	str	w3, [x2,#52]
    40101a58:	11460063 	add	w3, w3, #0x180, lsl #12
    40101a5c:	b9004443 	str	w3, [x2,#68]
    40101a60:	52800123 	mov	w3, #0x9                   	// #9
    40101a64:	72a001e3 	movk	w3, #0xf, lsl #16
    40101a68:	b900cc43 	str	w3, [x2,#204]
    40101a6c:	d2841502 	mov	x2, #0x20a8                	// #8360
    40101a70:	52800123 	mov	w3, #0x9                   	// #9
    40101a74:	f2a06002 	movk	x2, #0x300, lsl #16
    40101a78:	72a00023 	movk	w3, #0x1, lsl #16
    40101a7c:	b9000043 	str	w3, [x2]
    40101a80:	52802123 	mov	w3, #0x109                 	// #265
    40101a84:	72a00043 	movk	w3, #0x2, lsl #16
    40101a88:	b9003c43 	str	w3, [x2,#60]
    40101a8c:	d2841d83 	mov	x3, #0x20ec                	// #8428
    40101a90:	52804122 	mov	w2, #0x209                 	// #521
    40101a94:	f2a06003 	movk	x3, #0x300, lsl #16
    40101a98:	72a00042 	movk	w2, #0x2, lsl #16
    40101a9c:	b9000062 	str	w2, [x3]
    40101aa0:	d2841903 	mov	x3, #0x20c8                	// #8392
    40101aa4:	f2a06003 	movk	x3, #0x300, lsl #16
    40101aa8:	b9000060 	str	w0, [x3]
    40101aac:	d2841a00 	mov	x0, #0x20d0                	// #8400
    40101ab0:	f2a06000 	movk	x0, #0x300, lsl #16
    40101ab4:	52806123 	mov	w3, #0x309                 	// #777
    40101ab8:	72a000c3 	movk	w3, #0x6, lsl #16
    40101abc:	b9000003 	str	w3, [x0]
    40101ac0:	d2841b03 	mov	x3, #0x20d8                	// #8408
    40101ac4:	f2a06003 	movk	x3, #0x300, lsl #16
    40101ac8:	52804120 	mov	w0, #0x209                 	// #521
    40101acc:	72a00060 	movk	w0, #0x3, lsl #16
    40101ad0:	b9000060 	str	w0, [x3]
    40101ad4:	b9003862 	str	w2, [x3,#56]
    40101ad8:	d2842802 	mov	x2, #0x2140                	// #8512
    40101adc:	f2a06002 	movk	x2, #0x300, lsl #16
    40101ae0:	b9000041 	str	w1, [x2]
    40101ae4:	d2842881 	mov	x1, #0x2144                	// #8516
    40101ae8:	f2a06001 	movk	x1, #0x300, lsl #16
    40101aec:	b9000020 	str	w0, [x1]
    40101af0:	d2841701 	mov	x1, #0x20b8                	// #8376
    40101af4:	f2a06001 	movk	x1, #0x300, lsl #16
    40101af8:	52800120 	mov	w0, #0x9                   	// #9
    40101afc:	72a000a0 	movk	w0, #0x5, lsl #16
    40101b00:	b9000020 	str	w0, [x1]
    40101b04:	b9007420 	str	w0, [x1,#116]
    40101b08:	b947e820 	ldr	w0, [x1,#2024]
    40101b0c:	121d7800 	and	w0, w0, #0xfffffffb
    40101b10:	b907e820 	str	w0, [x1,#2024]
    40101b14:	b947f420 	ldr	w0, [x1,#2036]
    40101b18:	121d7400 	and	w0, w0, #0xfffffff9
    40101b1c:	b907f420 	str	w0, [x1,#2036]
    40101b20:	52801900 	mov	w0, #0xc8                  	// #200
    40101b24:	97fffd21 	bl	40100fa8 <udelay>
    40101b28:	d2840400 	mov	x0, #0x2020                	// #8224
    40101b2c:	52800021 	mov	w1, #0x1                   	// #1
    40101b30:	f2a06000 	movk	x0, #0x300, lsl #16
    40101b34:	72a02001 	movk	w1, #0x100, lsl #16
    40101b38:	b9000001 	str	w1, [x0]
    40101b3c:	52802000 	mov	w0, #0x100                 	// #256
    40101b40:	72a00100 	movk	w0, #0x8, lsl #16
    40101b44:	0a000273 	and	w19, w19, w0
    40101b48:	d2840600 	mov	x0, #0x2030                	// #8240
    40101b4c:	f2a06000 	movk	x0, #0x300, lsl #16
    40101b50:	b9000013 	str	w19, [x0]
    40101b54:	b900041f 	str	wzr, [x0,#4]
    40101b58:	f9400bf3 	ldr	x19, [sp,#16]
    40101b5c:	a8c47bfd 	ldp	x29, x30, [sp],#64
    40101b60:	d65f03c0 	ret

0000000040101b64 <sys_pll_nd>:
    40101b64:	a9bc7bfd 	stp	x29, x30, [sp,#-64]!
    40101b68:	910003fd 	mov	x29, sp
    40101b6c:	a90153f3 	stp	x19, x20, [sp,#16]
    40101b70:	2a0003f4 	mov	w20, w0
    40101b74:	52a493e0 	mov	w0, #0x249f0000            	// #614400000
    40101b78:	b90023a0 	str	w0, [x29,#32]
    40101b7c:	5282e8c0 	mov	w0, #0x1746                	// #5958
    40101b80:	72a48ba0 	movk	w0, #0x245d, lsl #16
    40101b84:	290483a0 	stp	w0, w0, [x29,#36]
    40101b88:	52955560 	mov	w0, #0xaaab                	// #43691
    40101b8c:	72a49540 	movk	w0, #0x24aa, lsl #16
    40101b90:	b9002fa0 	str	w0, [x29,#44]
    40101b94:	52904020 	mov	w0, #0x8201                	// #33281
    40101b98:	72a00240 	movk	w0, #0x12, lsl #16
    40101b9c:	b90033a0 	str	w0, [x29,#48]
    40101ba0:	52902020 	mov	w0, #0x8101                	// #33025
    40101ba4:	72a00300 	movk	w0, #0x18, lsl #16
    40101ba8:	b90037a0 	str	w0, [x29,#52]
    40101bac:	52904020 	mov	w0, #0x8201                	// #33281
    40101bb0:	72a00600 	movk	w0, #0x30, lsl #16
    40101bb4:	b9003ba0 	str	w0, [x29,#56]
    40101bb8:	52902020 	mov	w0, #0x8101                	// #33025
    40101bbc:	72a002c0 	movk	w0, #0x16, lsl #16
    40101bc0:	b9003fa0 	str	w0, [x29,#60]
    40101bc4:	90000060 	adrp	x0, 4010d000 <ddrc_init+0x19c>
    40101bc8:	912b1400 	add	x0, x0, #0xac5
    40101bcc:	97fffdb7 	bl	401012a8 <tf_printf>
    40101bd0:	34000134 	cbz	w20, 40101bf4 <sys_pll_nd+0x90>
    40101bd4:	52925480 	mov	w0, #0x92a4                	// #37540
    40101bd8:	72a45e60 	movk	w0, #0x22f3, lsl #16
    40101bdc:	b9002fa0 	str	w0, [x29,#44]
    40101be0:	52902020 	mov	w0, #0x8101                	// #33025
    40101be4:	72a00280 	movk	w0, #0x14, lsl #16
    40101be8:	b9003fa0 	str	w0, [x29,#60]
    40101bec:	52800b00 	mov	w0, #0x58                  	// #88
    40101bf0:	97ffff24 	bl	40101880 <config_core_power>
    40101bf4:	d2840600 	mov	x0, #0x2030                	// #8240
    40101bf8:	12800001 	mov	w1, #0xffffffff            	// #-1
    40101bfc:	f2a06000 	movk	x0, #0x300, lsl #16
    40101c00:	52902022 	mov	w2, #0x8101                	// #33025
    40101c04:	72a0a902 	movk	w2, #0x548, lsl #16
    40101c08:	d2850183 	mov	x3, #0x280c                	// #10252
    40101c0c:	b9400013 	ldr	w19, [x0]
    40101c10:	910083a5 	add	x5, x29, #0x20
    40101c14:	b9000001 	str	w1, [x0]
    40101c18:	d2840681 	mov	x1, #0x2034                	// #8244
    40101c1c:	f2a06001 	movk	x1, #0x300, lsl #16
    40101c20:	528007e0 	mov	w0, #0x3f                  	// #63
    40101c24:	9100c3a4 	add	x4, x29, #0x30
    40101c28:	f2a06003 	movk	x3, #0x300, lsl #16
    40101c2c:	b9000020 	str	w0, [x1]
    40101c30:	91208021 	add	x1, x1, #0x820
    40101c34:	b81b4022 	stur	w2, [x1,#-76]
    40101c38:	b81ec020 	stur	w0, [x1,#-20]
    40101c3c:	d2800000 	mov	x0, #0x0                   	// #0
    40101c40:	b8656802 	ldr	w2, [x0,x5]
    40101c44:	91004021 	add	x1, x1, #0x10
    40101c48:	b81f0022 	stur	w2, [x1,#-16]
    40101c4c:	b85ec022 	ldur	w2, [x1,#-20]
    40101c50:	121b7842 	and	w2, w2, #0xffffffef
    40101c54:	32000042 	orr	w2, w2, #0x1
    40101c58:	b81ec022 	stur	w2, [x1,#-20]
    40101c5c:	b8646802 	ldr	w2, [x0,x4]
    40101c60:	b8236802 	str	w2, [x0,x3]
    40101c64:	91001000 	add	x0, x0, #0x4
    40101c68:	f100401f 	cmp	x0, #0x10
    40101c6c:	54fffea1 	b.ne	40101c40 <sys_pll_nd+0xdc>
    40101c70:	d2850001 	mov	x1, #0x2800                	// #10240
    40101c74:	529dddc2 	mov	w2, #0xeeee                	// #61166
    40101c78:	f2a06001 	movk	x1, #0x300, lsl #16
    40101c7c:	72bfffc2 	movk	w2, #0xfffe, lsl #16
    40101c80:	52800123 	mov	w3, #0x9                   	// #9
    40101c84:	d2841c85 	mov	x5, #0x20e4                	// #8420
    40101c88:	b9400020 	ldr	w0, [x1]
    40101c8c:	72a00083 	movk	w3, #0x4, lsl #16
    40101c90:	d2841d84 	mov	x4, #0x20ec                	// #8428
    40101c94:	f2a06005 	movk	x5, #0x300, lsl #16
    40101c98:	0a020000 	and	w0, w0, w2
    40101c9c:	b9000020 	str	w0, [x1]
    40101ca0:	d2852100 	mov	x0, #0x2908                	// #10504
    40101ca4:	52902021 	mov	w1, #0x8101                	// #33025
    40101ca8:	f2a06000 	movk	x0, #0x300, lsl #16
    40101cac:	72a00801 	movk	w1, #0x40, lsl #16
    40101cb0:	52804122 	mov	w2, #0x209                 	// #521
    40101cb4:	f2a06004 	movk	x4, #0x300, lsl #16
    40101cb8:	b9000001 	str	w1, [x0]
    40101cbc:	d2840800 	mov	x0, #0x2040                	// #8256
    40101cc0:	f2a06000 	movk	x0, #0x300, lsl #16
    40101cc4:	52806121 	mov	w1, #0x309                 	// #777
    40101cc8:	72a00021 	movk	w1, #0x1, lsl #16
    40101ccc:	72a00042 	movk	w2, #0x2, lsl #16
    40101cd0:	b9000001 	str	w1, [x0]
    40101cd4:	52902021 	mov	w1, #0x8101                	// #33025
    40101cd8:	b900f802 	str	w2, [x0,#248]
    40101cdc:	72a00881 	movk	w1, #0x44, lsl #16
    40101ce0:	b908cc01 	str	w1, [x0,#2252]
    40101ce4:	d2840a80 	mov	x0, #0x2054                	// #8276
    40101ce8:	f2a06000 	movk	x0, #0x300, lsl #16
    40101cec:	52806121 	mov	w1, #0x309                 	// #777
    40101cf0:	72a00061 	movk	w1, #0x3, lsl #16
    40101cf4:	b9000001 	str	w1, [x0]
    40101cf8:	d2840901 	mov	x1, #0x2048                	// #8264
    40101cfc:	f2a06001 	movk	x1, #0x300, lsl #16
    40101d00:	52800120 	mov	w0, #0x9                   	// #9
    40101d04:	72a00060 	movk	w0, #0x3, lsl #16
    40101d08:	b9000020 	str	w0, [x1]
    40101d0c:	b9001c23 	str	w3, [x1,#28]
    40101d10:	11410063 	add	w3, w3, #0x40, lsl #12
    40101d14:	b9004023 	str	w3, [x1,#64]
    40101d18:	11428063 	add	w3, w3, #0xa0, lsl #12
    40101d1c:	b9005023 	str	w3, [x1,#80]
    40101d20:	52800123 	mov	w3, #0x9                   	// #9
    40101d24:	72a001e3 	movk	w3, #0xf, lsl #16
    40101d28:	b900d823 	str	w3, [x1,#216]
    40101d2c:	d2841501 	mov	x1, #0x20a8                	// #8360
    40101d30:	52800123 	mov	w3, #0x9                   	// #9
    40101d34:	f2a06001 	movk	x1, #0x300, lsl #16
    40101d38:	72a00023 	movk	w3, #0x1, lsl #16
    40101d3c:	b9000023 	str	w3, [x1]
    40101d40:	d2842883 	mov	x3, #0x2144                	// #8516
    40101d44:	b9002020 	str	w0, [x1,#32]
    40101d48:	f2a06003 	movk	x3, #0x300, lsl #16
    40101d4c:	b9006822 	str	w2, [x1,#104]
    40101d50:	52804121 	mov	w1, #0x209                 	// #521
    40101d54:	72a00061 	movk	w1, #0x3, lsl #16
    40101d58:	b9000061 	str	w1, [x3]
    40101d5c:	d2841a03 	mov	x3, #0x20d0                	// #8400
    40101d60:	f2a06003 	movk	x3, #0x300, lsl #16
    40101d64:	340005b4 	cbz	w20, 40101e18 <sys_pll_nd+0x2b4>
    40101d68:	52802120 	mov	w0, #0x109                 	// #265
    40101d6c:	72a00040 	movk	w0, #0x2, lsl #16
    40101d70:	b90000a0 	str	w0, [x5]
    40101d74:	52806120 	mov	w0, #0x309                 	// #777
    40101d78:	b9000082 	str	w2, [x4]
    40101d7c:	72a000c0 	movk	w0, #0x6, lsl #16
    40101d80:	b9000060 	str	w0, [x3]
    40101d84:	d2841b00 	mov	x0, #0x20d8                	// #8408
    40101d88:	f2a06000 	movk	x0, #0x300, lsl #16
    40101d8c:	b9000001 	str	w1, [x0]
    40101d90:	52800121 	mov	w1, #0x9                   	// #9
    40101d94:	72a00041 	movk	w1, #0x2, lsl #16
    40101d98:	b9006801 	str	w1, [x0,#104]
    40101d9c:	d2841701 	mov	x1, #0x20b8                	// #8376
    40101da0:	52800120 	mov	w0, #0x9                   	// #9
    40101da4:	f2a06001 	movk	x1, #0x300, lsl #16
    40101da8:	72a000a0 	movk	w0, #0x5, lsl #16
    40101dac:	b9000020 	str	w0, [x1]
    40101db0:	b9007420 	str	w0, [x1,#116]
    40101db4:	b947e820 	ldr	w0, [x1,#2024]
    40101db8:	121d7800 	and	w0, w0, #0xfffffffb
    40101dbc:	b907e820 	str	w0, [x1,#2024]
    40101dc0:	b947f420 	ldr	w0, [x1,#2036]
    40101dc4:	121d7400 	and	w0, w0, #0xfffffff9
    40101dc8:	b907f420 	str	w0, [x1,#2036]
    40101dcc:	52801900 	mov	w0, #0xc8                  	// #200
    40101dd0:	97fffc76 	bl	40100fa8 <udelay>
    40101dd4:	d2840400 	mov	x0, #0x2020                	// #8224
    40101dd8:	52800021 	mov	w1, #0x1                   	// #1
    40101ddc:	f2a06000 	movk	x0, #0x300, lsl #16
    40101de0:	72a02001 	movk	w1, #0x100, lsl #16
    40101de4:	b9000001 	str	w1, [x0]
    40101de8:	52802000 	mov	w0, #0x100                 	// #256
    40101dec:	72a00100 	movk	w0, #0x8, lsl #16
    40101df0:	0a000273 	and	w19, w19, w0
    40101df4:	d2840600 	mov	x0, #0x2030                	// #8240
    40101df8:	f2a06000 	movk	x0, #0x300, lsl #16
    40101dfc:	b9000013 	str	w19, [x0]
    40101e00:	b900041f 	str	wzr, [x0,#4]
    40101e04:	90000060 	adrp	x0, 4010d000 <ddrc_init+0x19c>
    40101e08:	a94153f3 	ldp	x19, x20, [sp,#16]
    40101e0c:	912b3800 	add	x0, x0, #0xace
    40101e10:	a8c47bfd 	ldp	x29, x30, [sp],#64
    40101e14:	17fffd25 	b	401012a8 <tf_printf>
    40101e18:	b90000a1 	str	w1, [x5]
    40101e1c:	52804121 	mov	w1, #0x209                 	// #521
    40101e20:	b9000080 	str	w0, [x4]
    40101e24:	72a000c1 	movk	w1, #0x6, lsl #16
    40101e28:	b9000061 	str	w1, [x3]
    40101e2c:	d2841b01 	mov	x1, #0x20d8                	// #8408
    40101e30:	f2a06001 	movk	x1, #0x300, lsl #16
    40101e34:	b9000020 	str	w0, [x1]
    40101e38:	b9006820 	str	w0, [x1,#104]
    40101e3c:	17ffffd8 	b	40101d9c <sys_pll_nd+0x238>

0000000040101e40 <sys_pll_init>:
    40101e40:	90000080 	adrp	x0, 40111000 <__BSS_START__>
    40101e44:	b941a800 	ldr	w0, [x0,#424]
    40101e48:	7100041f 	cmp	w0, #0x1
    40101e4c:	540000a0 	b.eq	40101e60 <sys_pll_init+0x20>
    40101e50:	7100081f 	cmp	w0, #0x2
    40101e54:	54000081 	b.ne	40101e64 <sys_pll_init+0x24>
    40101e58:	52800020 	mov	w0, #0x1                   	// #1
    40101e5c:	17ffff42 	b	40101b64 <sys_pll_nd>
    40101e60:	17fffe9d 	b	401018d4 <sys_pll_od>
    40101e64:	52800000 	mov	w0, #0x0                   	// #0
    40101e68:	17fffffd 	b	40101e5c <sys_pll_init+0x1c>

0000000040101e6c <switch_rtc_mode_1st_stage>:
    40101e6c:	d28c1f00 	mov	x0, #0x60f8                	// #24824
    40101e70:	f2a0a040 	movk	x0, #0x502, lsl #16
    40101e74:	b9400000 	ldr	w0, [x0]
    40101e78:	12000c00 	and	w0, w0, #0xf
    40101e7c:	7100241f 	cmp	w0, #0x9
    40101e80:	540001e1 	b.ne	40101ebc <switch_rtc_mode_1st_stage+0x50>
    40101e84:	d28dff00 	mov	x0, #0x6ff8                	// #28664
    40101e88:	f2a0a040 	movk	x0, #0x502, lsl #16
    40101e8c:	b9400000 	ldr	w0, [x0]
    40101e90:	52800801 	mov	w1, #0x40                  	// #64
    40101e94:	72b00001 	movk	w1, #0x8000, lsl #16
    40101e98:	6b01001f 	cmp	w0, w1
    40101e9c:	540005a0 	b.eq	40101f50 <switch_rtc_mode_1st_stage+0xe4>
    40101ea0:	d28a0101 	mov	x1, #0x5008                	// #20488
    40101ea4:	f2a0a041 	movk	x1, #0x502, lsl #16
    40101ea8:	b9400020 	ldr	w0, [x1]
    40101eac:	365000c0 	tbz	w0, #10, 40101ec4 <switch_rtc_mode_1st_stage+0x58>
    40101eb0:	90000060 	adrp	x0, 4010d000 <ddrc_init+0x19c>
    40101eb4:	9129e000 	add	x0, x0, #0xa78
    40101eb8:	17fffcfc 	b	401012a8 <tf_printf>
    40101ebc:	52800000 	mov	w0, #0x0                   	// #0
    40101ec0:	17fffff4 	b	40101e90 <switch_rtc_mode_1st_stage+0x24>
    40101ec4:	a9be7bfd 	stp	x29, x30, [sp,#-32]!
    40101ec8:	d28a0080 	mov	x0, #0x5004                	// #20484
    40101ecc:	f2a0a040 	movk	x0, #0x502, lsl #16
    40101ed0:	52956302 	mov	w2, #0xab18                	// #43800
    40101ed4:	910003fd 	mov	x29, sp
    40101ed8:	f9000bf3 	str	x19, [sp,#16]
    40101edc:	b9000002 	str	w2, [x0]
    40101ee0:	b9400020 	ldr	w0, [x1]
    40101ee4:	1204b800 	and	w0, w0, #0xf7fff7ff
    40101ee8:	32050000 	orr	w0, w0, #0x8000000
    40101eec:	b9000020 	str	w0, [x1]
    40101ef0:	d28a0180 	mov	x0, #0x500c                	// #20492
    40101ef4:	f2a0a040 	movk	x0, #0x502, lsl #16
    40101ef8:	b9400001 	ldr	w1, [x0]
    40101efc:	37cfffe1 	tbnz	w1, #25, 40101ef8 <switch_rtc_mode_1st_stage+0x8c>
    40101f00:	d28a0113 	mov	x19, #0x5008                	// #20488
    40101f04:	52800021 	mov	w1, #0x1                   	// #1
    40101f08:	f2a0a053 	movk	x19, #0x502, lsl #16
    40101f0c:	b9400260 	ldr	w0, [x19]
    40101f10:	32068000 	orr	w0, w0, #0x4000400
    40101f14:	b9000260 	str	w0, [x19]
    40101f18:	d28c9180 	mov	x0, #0x648c                	// #25740
    40101f1c:	f2a0a040 	movk	x0, #0x502, lsl #16
    40101f20:	b9000001 	str	w1, [x0]
    40101f24:	b900001f 	str	wzr, [x0]
    40101f28:	52801900 	mov	w0, #0xc8                  	// #200
    40101f2c:	97fffc1f 	bl	40100fa8 <udelay>
    40101f30:	b9400260 	ldr	w0, [x19]
    40101f34:	52810001 	mov	w1, #0x800                 	// #2048
    40101f38:	72a18001 	movk	w1, #0xc00, lsl #16
    40101f3c:	2a010000 	orr	w0, w0, w1
    40101f40:	b9000260 	str	w0, [x19]
    40101f44:	f9400bf3 	ldr	x19, [sp,#16]
    40101f48:	a8c27bfd 	ldp	x29, x30, [sp],#32
    40101f4c:	d65f03c0 	ret
    40101f50:	d65f03c0 	ret

0000000040101f54 <switch_rtc_mode_2nd_stage>:
    40101f54:	a9be7bfd 	stp	x29, x30, [sp,#-32]!
    40101f58:	d28a0180 	mov	x0, #0x500c                	// #20492
    40101f5c:	f2a0a040 	movk	x0, #0x502, lsl #16
    40101f60:	910003fd 	mov	x29, sp
    40101f64:	f9000bf3 	str	x19, [sp,#16]
    40101f68:	b9400013 	ldr	w19, [x0]
    40101f6c:	94002366 	bl	4010ad04 <get_pkg>
    40101f70:	12001c00 	and	w0, w0, #0xff
    40101f74:	7100041f 	cmp	w0, #0x1
    40101f78:	54000040 	b.eq	40101f80 <switch_rtc_mode_2nd_stage+0x2c>
    40101f7c:	37c80273 	tbnz	w19, #25, 40101fc8 <switch_rtc_mode_2nd_stage+0x74>
    40101f80:	d28a0101 	mov	x1, #0x5008                	// #20488
    40101f84:	529f7fe2 	mov	w2, #0xfbff                	// #64511
    40101f88:	f2a0a041 	movk	x1, #0x502, lsl #16
    40101f8c:	72be7fe2 	movk	w2, #0xf3ff, lsl #16
    40101f90:	b9400020 	ldr	w0, [x1]
    40101f94:	0a020000 	and	w0, w0, w2
    40101f98:	32060400 	orr	w0, w0, #0xc000000
    40101f9c:	b9000020 	str	w0, [x1]
    40101fa0:	d28c9180 	mov	x0, #0x648c                	// #25740
    40101fa4:	52800021 	mov	w1, #0x1                   	// #1
    40101fa8:	f2a0a040 	movk	x0, #0x502, lsl #16
    40101fac:	b9000001 	str	w1, [x0]
    40101fb0:	b900001f 	str	wzr, [x0]
    40101fb4:	90000060 	adrp	x0, 4010d000 <ddrc_init+0x19c>
    40101fb8:	912a4c00 	add	x0, x0, #0xa93
    40101fbc:	f9400bf3 	ldr	x19, [sp,#16]
    40101fc0:	a8c27bfd 	ldp	x29, x30, [sp],#32
    40101fc4:	17fffcb9 	b	401012a8 <tf_printf>
    40101fc8:	90000060 	adrp	x0, 4010d000 <ddrc_init+0x19c>
    40101fcc:	912a9c00 	add	x0, x0, #0xaa7
    40101fd0:	17fffffb 	b	40101fbc <switch_rtc_mode_2nd_stage+0x68>

0000000040101fd4 <set_rtc_en_registers>:
    40101fd4:	d28c1f00 	mov	x0, #0x60f8                	// #24824
    40101fd8:	a9bf7bfd 	stp	x29, x30, [sp,#-16]!
    40101fdc:	f2a0a040 	movk	x0, #0x502, lsl #16
    40101fe0:	910003fd 	mov	x29, sp
    40101fe4:	b9400001 	ldr	w1, [x0]
    40101fe8:	90000060 	adrp	x0, 4010d000 <ddrc_init+0x19c>
    40101fec:	91294400 	add	x0, x0, #0xa51
    40101ff0:	97fffcae 	bl	401012a8 <tf_printf>
    40101ff4:	d28c1f80 	mov	x0, #0x60fc                	// #24828
    40101ff8:	f2a0a040 	movk	x0, #0x502, lsl #16
    40101ffc:	b9400001 	ldr	w1, [x0]
    40102000:	f0000040 	adrp	x0, 4010d000 <ddrc_init+0x19c>
    40102004:	91299000 	add	x0, x0, #0xa64
    40102008:	97fffca8 	bl	401012a8 <tf_printf>
    4010200c:	d28c1800 	mov	x0, #0x60c0                	// #24768
    40102010:	52800021 	mov	w1, #0x1                   	// #1
    40102014:	f2a0a040 	movk	x0, #0x502, lsl #16
    40102018:	b9000001 	str	w1, [x0]
    4010201c:	b9400001 	ldr	w1, [x0]
    40102020:	7100043f 	cmp	w1, #0x1
    40102024:	54ffffc1 	b.ne	4010201c <set_rtc_en_registers+0x48>
    40102028:	d28c1980 	mov	x0, #0x60cc                	// #24780
    4010202c:	f2a0a040 	movk	x0, #0x502, lsl #16
    40102030:	b9000001 	str	w1, [x0]
    40102034:	b9400001 	ldr	w1, [x0]
    40102038:	7100043f 	cmp	w1, #0x1
    4010203c:	54ffffc1 	b.ne	40102034 <set_rtc_en_registers+0x60>
    40102040:	d28c1900 	mov	x0, #0x60c8                	// #24776
    40102044:	f2a0a040 	movk	x0, #0x502, lsl #16
    40102048:	b9000001 	str	w1, [x0]
    4010204c:	b9400001 	ldr	w1, [x0]
    40102050:	7100043f 	cmp	w1, #0x1
    40102054:	54ffffc1 	b.ne	4010204c <set_rtc_en_registers+0x78>
    40102058:	d28c1c00 	mov	x0, #0x60e0                	// #24800
    4010205c:	f2a0a040 	movk	x0, #0x502, lsl #16
    40102060:	b9000001 	str	w1, [x0]
    40102064:	b9400001 	ldr	w1, [x0]
    40102068:	7100043f 	cmp	w1, #0x1
    4010206c:	54ffffc1 	b.ne	40102064 <set_rtc_en_registers+0x90>
    40102070:	d28a1580 	mov	x0, #0x50ac                	// #20652
    40102074:	129ef7e2 	mov	w2, #0xffff0840            	// #-63424
    40102078:	f2a0a040 	movk	x0, #0x502, lsl #16
    4010207c:	b9000001 	str	w1, [x0]
    40102080:	d28a0080 	mov	x0, #0x5004                	// #20484
    40102084:	f2a0a040 	movk	x0, #0x502, lsl #16
    40102088:	52956301 	mov	w1, #0xab18                	// #43800
    4010208c:	b9000001 	str	w1, [x0]
    40102090:	d28a0101 	mov	x1, #0x5008                	// #20488
    40102094:	f2a0a041 	movk	x1, #0x502, lsl #16
    40102098:	b9400020 	ldr	w0, [x1]
    4010209c:	2a020000 	orr	w0, w0, w2
    401020a0:	b9000020 	str	w0, [x1]
    401020a4:	d28c1a01 	mov	x1, #0x60d0                	// #24784
    401020a8:	f2a0a041 	movk	x1, #0x502, lsl #16
    401020ac:	b9400020 	ldr	w0, [x1]
    401020b0:	121d7800 	and	w0, w0, #0xfffffffb
    401020b4:	b9000020 	str	w0, [x1]
    401020b8:	a8c17bfd 	ldp	x29, x30, [sp],#16
    401020bc:	d65f03c0 	ret

00000000401020c0 <memcmp>:
    401020c0:	d2800004 	mov	x4, #0x0                   	// #0
    401020c4:	eb04005f 	cmp	x2, x4
    401020c8:	54000061 	b.ne	401020d4 <memcmp+0x14>
    401020cc:	52800000 	mov	w0, #0x0                   	// #0
    401020d0:	d65f03c0 	ret
    401020d4:	38646803 	ldrb	w3, [x0,x4]
    401020d8:	91000484 	add	x4, x4, #0x1
    401020dc:	8b040025 	add	x5, x1, x4
    401020e0:	385ff0a5 	ldurb	w5, [x5,#-1]
    401020e4:	6b05007f 	cmp	w3, w5
    401020e8:	54fffee0 	b.eq	401020c4 <memcmp+0x4>
    401020ec:	4b050060 	sub	w0, w3, w5
    401020f0:	d65f03c0 	ret

00000000401020f4 <memset>:
    401020f4:	12001c26 	and	w6, w1, #0xff
    401020f8:	aa0003e3 	mov	x3, x0
    401020fc:	f240087f 	tst	x3, #0x7
    40102100:	540000c0 	b.eq	40102118 <memset+0x24>
    40102104:	b5000042 	cbnz	x2, 4010210c <memset+0x18>
    40102108:	d65f03c0 	ret
    4010210c:	38001466 	strb	w6, [x3],#1
    40102110:	d1000442 	sub	x2, x2, #0x1
    40102114:	17fffffa 	b	401020fc <memset+0x8>
    40102118:	b40001e2 	cbz	x2, 40102154 <memset+0x60>
    4010211c:	92401c21 	and	x1, x1, #0xff
    40102120:	b200c3e4 	mov	x4, #0x101010101010101     	// #72340172838076673
    40102124:	d2800005 	mov	x5, #0x0                   	// #0
    40102128:	9b047c21 	mul	x1, x1, x4
    4010212c:	d343fc44 	lsr	x4, x2, #3
    40102130:	d37df087 	lsl	x7, x4, #3
    40102134:	eb0700bf 	cmp	x5, x7
    40102138:	54000101 	b.ne	40102158 <memset+0x64>
    4010213c:	cb040c44 	sub	x4, x2, x4, lsl #3
    40102140:	927df042 	and	x2, x2, #0xfffffffffffffff8
    40102144:	8b020062 	add	x2, x3, x2
    40102148:	d2800001 	mov	x1, #0x0                   	// #0
    4010214c:	eb01009f 	cmp	x4, x1
    40102150:	540000a1 	b.ne	40102164 <memset+0x70>
    40102154:	d65f03c0 	ret
    40102158:	f8256861 	str	x1, [x3,x5]
    4010215c:	910020a5 	add	x5, x5, #0x8
    40102160:	17fffff5 	b	40102134 <memset+0x40>
    40102164:	38216846 	strb	w6, [x2,x1]
    40102168:	91000421 	add	x1, x1, #0x1
    4010216c:	17fffff8 	b	4010214c <memset+0x58>

0000000040102170 <memcpy>:
    40102170:	ca010003 	eor	x3, x0, x1
    40102174:	f240087f 	tst	x3, #0x7
    40102178:	540003a1 	b.ne	401021ec <memcpy+0x7c>
    4010217c:	aa0003e4 	mov	x4, x0
    40102180:	aa0203e3 	mov	x3, x2
    40102184:	f240089f 	tst	x4, #0x7
    40102188:	540000e0 	b.eq	401021a4 <memcpy+0x34>
    4010218c:	b5000043 	cbnz	x3, 40102194 <memcpy+0x24>
    40102190:	d65f03c0 	ret
    40102194:	38401422 	ldrb	w2, [x1],#1
    40102198:	d1000463 	sub	x3, x3, #0x1
    4010219c:	38001482 	strb	w2, [x4],#1
    401021a0:	17fffff9 	b	40102184 <memcpy+0x14>
    401021a4:	b40001a3 	cbz	x3, 401021d8 <memcpy+0x68>
    401021a8:	d343fc62 	lsr	x2, x3, #3
    401021ac:	d2800005 	mov	x5, #0x0                   	// #0
    401021b0:	d37df046 	lsl	x6, x2, #3
    401021b4:	eb0600bf 	cmp	x5, x6
    401021b8:	54000121 	b.ne	401021dc <memcpy+0x6c>
    401021bc:	cb020c62 	sub	x2, x3, x2, lsl #3
    401021c0:	927df063 	and	x3, x3, #0xfffffffffffffff8
    401021c4:	8b030021 	add	x1, x1, x3
    401021c8:	8b030083 	add	x3, x4, x3
    401021cc:	d2800004 	mov	x4, #0x0                   	// #0
    401021d0:	eb04005f 	cmp	x2, x4
    401021d4:	54000101 	b.ne	401021f4 <memcpy+0x84>
    401021d8:	d65f03c0 	ret
    401021dc:	f8656827 	ldr	x7, [x1,x5]
    401021e0:	f8256887 	str	x7, [x4,x5]
    401021e4:	910020a5 	add	x5, x5, #0x8
    401021e8:	17fffff3 	b	401021b4 <memcpy+0x44>
    401021ec:	aa0003e3 	mov	x3, x0
    401021f0:	17fffff7 	b	401021cc <memcpy+0x5c>
    401021f4:	38646825 	ldrb	w5, [x1,x4]
    401021f8:	38246865 	strb	w5, [x3,x4]
    401021fc:	91000484 	add	x4, x4, #0x1
    40102200:	17fffff4 	b	401021d0 <memcpy+0x60>

0000000040102204 <memmove>:
    40102204:	cb010006 	sub	x6, x0, x1
    40102208:	aa0003e4 	mov	x4, x0
    4010220c:	eb0200df 	cmp	x6, x2
    40102210:	54000043 	b.cc	40102218 <memmove+0x14>
    40102214:	17ffffd7 	b	40102170 <memcpy>
    40102218:	8b020003 	add	x3, x0, x2
    4010221c:	8b020025 	add	x5, x1, x2
    40102220:	aa2303e1 	mvn	x1, x3
    40102224:	8b010001 	add	x1, x0, x1
    40102228:	d2800000 	mov	x0, #0x0                   	// #0
    4010222c:	d1000400 	sub	x0, x0, #0x1
    40102230:	eb01001f 	cmp	x0, x1
    40102234:	54000061 	b.ne	40102240 <memmove+0x3c>
    40102238:	aa0403e0 	mov	x0, x4
    4010223c:	d65f03c0 	ret
    40102240:	386068a2 	ldrb	w2, [x5,x0]
    40102244:	38206862 	strb	w2, [x3,x0]
    40102248:	17fffff9 	b	4010222c <memmove+0x28>

000000004010224c <putchar_l>:
    4010224c:	a9be7bfd 	stp	x29, x30, [sp,#-32]!
    40102250:	5283ffe2 	mov	w2, #0x1fff                	// #8191
    40102254:	910003fd 	mov	x29, sp
    40102258:	f9000bf3 	str	x19, [sp,#16]
    4010225c:	2a0003f3 	mov	w19, w0
    40102260:	d2800100 	mov	x0, #0x8                   	// #8
    40102264:	f2a1c000 	movk	x0, #0xe00, lsl #16
    40102268:	b9400003 	ldr	w3, [x0]
    4010226c:	6b02007f 	cmp	w3, w2
    40102270:	54000049 	b.ls	40102278 <putchar_l+0x2c>
    40102274:	b900001f 	str	wzr, [x0]
    40102278:	b9400002 	ldr	w2, [x0]
    4010227c:	7100043f 	cmp	w1, #0x1
    40102280:	11000443 	add	w3, w2, #0x1
    40102284:	b9000003 	str	w3, [x0]
    40102288:	d28e0000 	mov	x0, #0x7000                	// #28672
    4010228c:	f2a18060 	movk	x0, #0xc03, lsl #16
    40102290:	38224813 	strb	w19, [x0,w2,uxtw]
    40102294:	5400010c 	b.gt	401022b4 <putchar_l+0x68>
    40102298:	d2a1c000 	mov	x0, #0xe000000             	// #234881024
    4010229c:	39400000 	ldrb	w0, [x0]
    401022a0:	371000a0 	tbnz	w0, #2, 401022b4 <putchar_l+0x68>
    401022a4:	12001e60 	and	w0, w19, #0xff
    401022a8:	94002d9d 	bl	4010d91c <console_putc>
    401022ac:	7100001f 	cmp	w0, #0x0
    401022b0:	5a9fa273 	csinv	w19, w19, wzr, ge
    401022b4:	2a1303e0 	mov	w0, w19
    401022b8:	f9400bf3 	ldr	x19, [sp,#16]
    401022bc:	a8c27bfd 	ldp	x29, x30, [sp],#32
    401022c0:	d65f03c0 	ret

00000000401022c4 <read_time_ms>:
    401022c4:	a9bf7bfd 	stp	x29, x30, [sp,#-16]!
    401022c8:	910003fd 	mov	x29, sp
    401022cc:	97fffb51 	bl	40101010 <read_count_tick>
    401022d0:	110f9c00 	add	w0, w0, #0x3e7
    401022d4:	52807d01 	mov	w1, #0x3e8                 	// #1000
    401022d8:	a8c17bfd 	ldp	x29, x30, [sp],#16
    401022dc:	1ac10800 	udiv	w0, w0, w1
    401022e0:	d65f03c0 	ret

00000000401022e4 <init_comm_info>:
    401022e4:	d65f03c0 	ret

00000000401022e8 <load_data_from_storage>:
    401022e8:	a9bd7bfd 	stp	x29, x30, [sp,#-48]!
    401022ec:	900000a5 	adrp	x5, 40116000 <sram_union_buf+0x3e00>
    401022f0:	5299c006 	mov	w6, #0xce00                	// #52736
    401022f4:	910003fd 	mov	x29, sp
    401022f8:	a90153f3 	stp	x19, x20, [sp,#16]
    401022fc:	aa0003f4 	mov	x20, x0
    40102300:	a9025bf5 	stp	x21, x22, [sp,#32]
    40102304:	2a0203f3 	mov	w19, w2
    40102308:	b942c0a5 	ldr	w5, [x5,#704]
    4010230c:	2a0103f6 	mov	w22, w1
    40102310:	6b0600bf 	cmp	w5, w6
    40102314:	540001e1 	b.ne	40102350 <load_data_from_storage+0x68>
    40102318:	f0000075 	adrp	x21, 40111000 <__BSS_START__>
    4010231c:	b9419aa0 	ldr	w0, [x21,#408]
    40102320:	35000040 	cbnz	w0, 40102328 <load_data_from_storage+0x40>
    40102324:	94000575 	bl	401038f8 <get_nand_info>
    40102328:	b9419aa0 	ldr	w0, [x21,#408]
    4010232c:	2a1303e2 	mov	w2, w19
    40102330:	2a1603e1 	mov	w1, w22
    40102334:	11000400 	add	w0, w0, #0x1
    40102338:	b9019aa0 	str	w0, [x21,#408]
    4010233c:	aa1403e0 	mov	x0, x20
    40102340:	a9425bf5 	ldp	x21, x22, [sp,#32]
    40102344:	a94153f3 	ldp	x19, x20, [sp,#16]
    40102348:	a8c37bfd 	ldp	x29, x30, [sp],#48
    4010234c:	140005d0 	b	40103a8c <cv_spi_nand_read_data>
    40102350:	5299c046 	mov	w6, #0xce02                	// #52738
    40102354:	6b0600bf 	cmp	w5, w6
    40102358:	540000c1 	b.ne	40102370 <load_data_from_storage+0x88>
    4010235c:	2a1303e2 	mov	w2, w19
    40102360:	a9425bf5 	ldp	x21, x22, [sp,#32]
    40102364:	a94153f3 	ldp	x19, x20, [sp,#16]
    40102368:	a8c37bfd 	ldp	x29, x30, [sp],#48
    4010236c:	17fbf73d 	b	40000060 <p_rom_api_load_image>
    40102370:	5299c060 	mov	w0, #0xce03                	// #52739
    40102374:	6b0000bf 	cmp	w5, w0
    40102378:	54000461 	b.ne	40102404 <load_data_from_storage+0x11c>
    4010237c:	12001c84 	and	w4, w4, #0xff
    40102380:	34000384 	cbz	w4, 401023f0 <load_data_from_storage+0x108>
    40102384:	0b034822 	add	w2, w1, w3, lsl #18
    40102388:	f240205f 	tst	x2, #0x1ff
    4010238c:	54000401 	b.ne	4010240c <load_data_from_storage+0x124>
    40102390:	f240229f 	tst	x20, #0x1ff
    40102394:	540003c1 	b.ne	4010240c <load_data_from_storage+0x124>
    40102398:	f240227f 	tst	x19, #0x1ff
    4010239c:	54000381 	b.ne	4010240c <load_data_from_storage+0x124>
    401023a0:	aa1403e5 	mov	x5, x20
    401023a4:	2a1303e4 	mov	w4, w19
    401023a8:	53097c55 	lsr	w21, w2, #9
    401023ac:	f0000041 	adrp	x1, 4010d000 <ddrc_init+0x19c>
    401023b0:	2a1503e3 	mov	w3, w21
    401023b4:	912ba021 	add	x1, x1, #0xae8
    401023b8:	f0000040 	adrp	x0, 4010d000 <ddrc_init+0x19c>
    401023bc:	91332c00 	add	x0, x0, #0xccb
    401023c0:	97fffbba 	bl	401012a8 <tf_printf>
    401023c4:	aa1303e3 	mov	x3, x19
    401023c8:	aa1403e2 	mov	x2, x20
    401023cc:	2a1503e1 	mov	w1, w21
    401023d0:	52800020 	mov	w0, #0x1                   	// #1
    401023d4:	940006b4 	bl	40103ea4 <emmc_partition_read_blocks>
    401023d8:	eb00027f 	cmp	x19, x0
    401023dc:	5a9f03e0 	csetm	w0, ne
    401023e0:	a94153f3 	ldp	x19, x20, [sp,#16]
    401023e4:	a9425bf5 	ldp	x21, x22, [sp,#32]
    401023e8:	a8c37bfd 	ldp	x29, x30, [sp],#48
    401023ec:	d65f03c0 	ret
    401023f0:	2a1303e2 	mov	w2, w19
    401023f4:	aa1403e1 	mov	x1, x20
    401023f8:	53097ec0 	lsr	w0, w22, #9
    401023fc:	9400063f 	bl	40103cf8 <emmc_read_blocks>
    40102400:	17fffff8 	b	401023e0 <load_data_from_storage+0xf8>
    40102404:	52800000 	mov	w0, #0x0                   	// #0
    40102408:	17fffff6 	b	401023e0 <load_data_from_storage+0xf8>
    4010240c:	12800000 	mov	w0, #0xffffffff            	// #-1
    40102410:	17fffff4 	b	401023e0 <load_data_from_storage+0xf8>

0000000040102414 <bl2_decompress>:
    40102414:	a9bf7bfd 	stp	x29, x30, [sp,#-16]!
    40102418:	910003fd 	mov	x29, sp
    4010241c:	94002024 	bl	4010a4ac <decompress>
    40102420:	7100001f 	cmp	w0, #0x0
    40102424:	5a9fa000 	csinv	w0, w0, wzr, ge
    40102428:	a8c17bfd 	ldp	x29, x30, [sp],#16
    4010242c:	d65f03c0 	ret

0000000040102430 <load_param2>:
    40102430:	a9bd7bfd 	stp	x29, x30, [sp,#-48]!
    40102434:	d2820001 	mov	x1, #0x1000                	// #4096
    40102438:	910003fd 	mov	x29, sp
    4010243c:	a90153f3 	stp	x19, x20, [sp,#16]
    40102440:	f0000073 	adrp	x19, 40111000 <__BSS_START__>
    40102444:	91080274 	add	x20, x19, #0x200
    40102448:	f90013f5 	str	x21, [sp,#32]
    4010244c:	aa1403e2 	mov	x2, x20
    40102450:	2a0003f5 	mov	w21, w0
    40102454:	f0000040 	adrp	x0, 4010d000 <ddrc_init+0x19c>
    40102458:	913b0800 	add	x0, x0, #0xec2
    4010245c:	97fffb93 	bl	401012a8 <tf_printf>
    40102460:	f0000060 	adrp	x0, 40111000 <__BSS_START__>
    40102464:	b9419c01 	ldr	w1, [x0,#412]
    40102468:	5299c060 	mov	w0, #0xce03                	// #52739
    4010246c:	6b00003f 	cmp	w1, w0
    40102470:	90000060 	adrp	x0, 4010e000 <__func__.4151+0x10>
    40102474:	f9466800 	ldr	x0, [x0,#3280]
    40102478:	54000301 	b.ne	401024d8 <load_param2+0xa8>
    4010247c:	b940e001 	ldr	w1, [x0,#224]
    40102480:	52800024 	mov	w4, #0x1                   	// #1
    40102484:	2a1503e3 	mov	w3, w21
    40102488:	52820002 	mov	w2, #0x1000                	// #4096
    4010248c:	aa1403e0 	mov	x0, x20
    40102490:	97ffff96 	bl	401022e8 <load_data_from_storage>
    40102494:	37f801a0 	tbnz	w0, #31, 401024c8 <load_param2+0x98>
    40102498:	d28ac860 	mov	x0, #0x5643                	// #22083
    4010249c:	f9410261 	ldr	x1, [x19,#512]
    401024a0:	f2a88980 	movk	x0, #0x444c, lsl #16
    401024a4:	91080274 	add	x20, x19, #0x200
    401024a8:	f2c64600 	movk	x0, #0x3230, lsl #32
    401024ac:	f2e00140 	movk	x0, #0xa, lsl #48
    401024b0:	eb00003f 	cmp	x1, x0
    401024b4:	540001e0 	b.eq	401024f0 <load_param2+0xc0>
    401024b8:	f0000040 	adrp	x0, 4010d000 <ddrc_init+0x19c>
    401024bc:	913b4c00 	add	x0, x0, #0xed3
    401024c0:	97fffb7a 	bl	401012a8 <tf_printf>
    401024c4:	12800000 	mov	w0, #0xffffffff            	// #-1
    401024c8:	a94153f3 	ldp	x19, x20, [sp,#16]
    401024cc:	f94013f5 	ldr	x21, [sp,#32]
    401024d0:	a8c37bfd 	ldp	x29, x30, [sp],#48
    401024d4:	d65f03c0 	ret
    401024d8:	b940e001 	ldr	w1, [x0,#224]
    401024dc:	2a1503e3 	mov	w3, w21
    401024e0:	d2820002 	mov	x2, #0x1000                	// #4096
    401024e4:	aa1403e0 	mov	x0, x20
    401024e8:	97fbf6de 	bl	40000060 <p_rom_api_load_image>
    401024ec:	17ffffea 	b	40102494 <load_param2+0x64>
    401024f0:	5281fe81 	mov	w1, #0xff4                 	// #4084
    401024f4:	f0000060 	adrp	x0, 40111000 <__BSS_START__>
    401024f8:	91083000 	add	x0, x0, #0x20c
    401024fc:	97fbf6e9 	bl	400000a0 <p_rom_api_image_crc>
    40102500:	b9400a82 	ldr	w2, [x20,#8]
    40102504:	6b02001f 	cmp	w0, w2
    40102508:	540000c0 	b.eq	40102520 <load_param2+0xf0>
    4010250c:	2a0003e1 	mov	w1, w0
    40102510:	f0000040 	adrp	x0, 4010d000 <ddrc_init+0x19c>
    40102514:	913b9400 	add	x0, x0, #0xee5
    40102518:	97fffb64 	bl	401012a8 <tf_printf>
    4010251c:	17ffffea 	b	401024c4 <load_param2+0x94>
    40102520:	f0000040 	adrp	x0, 4010d000 <ddrc_init+0x19c>
    40102524:	913c1000 	add	x0, x0, #0xf04
    40102528:	97fffb60 	bl	401012a8 <tf_printf>
    4010252c:	52800000 	mov	w0, #0x0                   	// #0
    40102530:	17ffffe6 	b	401024c8 <load_param2+0x98>

0000000040102534 <load_ddr>:
    40102534:	a9bd7bfd 	stp	x29, x30, [sp,#-48]!
    40102538:	910003fd 	mov	x29, sp
    4010253c:	a90153f3 	stp	x19, x20, [sp,#16]
    40102540:	f0000053 	adrp	x19, 4010d000 <ddrc_init+0x19c>
    40102544:	9133f673 	add	x19, x19, #0xcfd
    40102548:	a9025bf5 	stp	x21, x22, [sp,#32]
    4010254c:	1299d3f4 	mov	w20, #0xffff3160            	// #-52896
    40102550:	d2800035 	mov	x21, #0x1                   	// #1
    40102554:	d2800536 	mov	x22, #0x29                  	// #41
    40102558:	97fbf6da 	bl	400000c0 <p_rom_api_get_number_of_retries>
    4010255c:	7100001f 	cmp	w0, #0x0
    40102560:	5400022c 	b.gt	401025a4 <load_ddr+0x70>
    40102564:	97fbf6af 	bl	40000020 <p_rom_api_get_boot_src>
    40102568:	0b140000 	add	w0, w0, w20
    4010256c:	52800001 	mov	w1, #0x0                   	// #0
    40102570:	7100141f 	cmp	w0, #0x5
    40102574:	54000108 	b.hi	40102594 <load_ddr+0x60>
    40102578:	9ac022a0 	lsl	x0, x21, x0
    4010257c:	ea16001f 	tst	x0, x22
    40102580:	540000a0 	b.eq	40102594 <load_ddr+0x60>
    40102584:	aa1303e0 	mov	x0, x19
    40102588:	97fffb48 	bl	401012a8 <tf_printf>
    4010258c:	97fbf6bd 	bl	40000080 <p_rom_api_flash_init>
    40102590:	17fffff2 	b	40102558 <load_ddr+0x24>
    40102594:	f0000040 	adrp	x0, 4010d000 <ddrc_init+0x19c>
    40102598:	91348c00 	add	x0, x0, #0xd23
    4010259c:	97fffb43 	bl	401012a8 <tf_printf>
    401025a0:	97fffc75 	bl	40101774 <panic_handler>
    401025a4:	90000073 	adrp	x19, 4010e000 <__func__.4151+0x10>
    401025a8:	f9466e74 	ldr	x20, [x19,#3288]
    401025ac:	97ffff46 	bl	401022c4 <read_time_ms>
    401025b0:	39000a80 	strb	w0, [x20,#2]
    401025b4:	d3483c00 	ubfx	x0, x0, #8, #8
    401025b8:	39000e80 	strb	w0, [x20,#3]
    401025bc:	90000080 	adrp	x0, 40112000 <fip_param2+0xe00>
    401025c0:	91080000 	add	x0, x0, #0x200
    401025c4:	94002107 	bl	4010a9e0 <ddr_init>
    401025c8:	f9466e73 	ldr	x19, [x19,#3288]
    401025cc:	97ffff3e 	bl	401022c4 <read_time_ms>
    401025d0:	a9425bf5 	ldp	x21, x22, [sp,#32]
    401025d4:	39001260 	strb	w0, [x19,#4]
    401025d8:	d3483c00 	ubfx	x0, x0, #8, #8
    401025dc:	39001660 	strb	w0, [x19,#5]
    401025e0:	52800000 	mov	w0, #0x0                   	// #0
    401025e4:	a94153f3 	ldp	x19, x20, [sp,#16]
    401025e8:	a8c37bfd 	ldp	x29, x30, [sp],#48
    401025ec:	d65f03c0 	ret

00000000401025f0 <load_blcp_2nd>:
    401025f0:	a9ba7bfd 	stp	x29, x30, [sp,#-96]!
    401025f4:	910003fd 	mov	x29, sp
    401025f8:	a90363f7 	stp	x23, x24, [sp,#48]
    401025fc:	2a0003f8 	mov	w24, w0
    40102600:	900000a0 	adrp	x0, 40116000 <sram_union_buf+0x3e00>
    40102604:	910a0001 	add	x1, x0, #0x280
    40102608:	a90153f3 	stp	x19, x20, [sp,#16]
    4010260c:	f0000074 	adrp	x20, 40111000 <__BSS_START__>
    40102610:	b9428013 	ldr	w19, [x0,#640]
    40102614:	2940dc22 	ldp	w2, w23, [x1,#4]
    40102618:	a9025bf5 	stp	x21, x22, [sp,#32]
    4010261c:	a9046bf9 	stp	x25, x26, [sp,#64]
    40102620:	aa0003f5 	mov	x21, x0
    40102624:	f9002fa2 	str	x2, [x29,#88]
    40102628:	35000073 	cbnz	w19, 40102634 <load_blcp_2nd+0x44>
    4010262c:	91080280 	add	x0, x20, #0x200
    40102630:	b9402c13 	ldr	w19, [x0,#44]
    40102634:	91080296 	add	x22, x20, #0x200
    40102638:	90000079 	adrp	x25, 4010e000 <__func__.4151+0x10>
    4010263c:	2a1703e2 	mov	w2, w23
    40102640:	2a1303e1 	mov	w1, w19
    40102644:	f0000040 	adrp	x0, 4010d000 <ddrc_init+0x19c>
    40102648:	912d8c00 	add	x0, x0, #0xb63
    4010264c:	b9402ac3 	ldr	w3, [x22,#40]
    40102650:	97fffb16 	bl	401012a8 <tf_printf>
    40102654:	f9466f21 	ldr	x1, [x25,#3288]
    40102658:	39401022 	ldrb	w2, [x1,#4]
    4010265c:	39401420 	ldrb	w0, [x1,#5]
    40102660:	aa002040 	orr	x0, x2, x0, lsl #8
    40102664:	39001820 	strb	w0, [x1,#6]
    40102668:	d348fc00 	lsr	x0, x0, #8
    4010266c:	39001c20 	strb	w0, [x1,#7]
    40102670:	f0000040 	adrp	x0, 4010d000 <ddrc_init+0x19c>
    40102674:	912e9000 	add	x0, x0, #0xba4
    40102678:	b9402ec1 	ldr	w1, [x22,#44]
    4010267c:	97fffb0b 	bl	401012a8 <tf_printf>
    40102680:	b9402ec0 	ldr	w0, [x22,#44]
    40102684:	35000160 	cbnz	w0, 401026b0 <load_blcp_2nd+0xc0>
    40102688:	f0000040 	adrp	x0, 4010d000 <ddrc_init+0x19c>
    4010268c:	912f0c00 	add	x0, x0, #0xbc3
    40102690:	97fffb06 	bl	401012a8 <tf_printf>
    40102694:	52800000 	mov	w0, #0x0                   	// #0
    40102698:	a94153f3 	ldp	x19, x20, [sp,#16]
    4010269c:	a9425bf5 	ldp	x21, x22, [sp,#32]
    401026a0:	a94363f7 	ldp	x23, x24, [sp,#48]
    401026a4:	a9446bf9 	ldp	x25, x26, [sp,#64]
    401026a8:	a8c67bfd 	ldp	x29, x30, [sp],#96
    401026ac:	d65f03c0 	ret
    401026b0:	910a02a1 	add	x1, x21, #0x280
    401026b4:	b9404423 	ldr	w3, [x1,#68]
    401026b8:	6b03001f 	cmp	w0, w3
    401026bc:	540000a3 	b.cc	401026d0 <load_blcp_2nd+0xe0>
    401026c0:	b9404822 	ldr	w2, [x1,#72]
    401026c4:	0b020062 	add	w2, w3, w2
    401026c8:	6b02001f 	cmp	w0, w2
    401026cc:	54000b23 	b.cc	40102830 <load_blcp_2nd+0x240>
    401026d0:	2a0003e1 	mov	w1, w0
    401026d4:	f0000040 	adrp	x0, 4010d000 <ddrc_init+0x19c>
    401026d8:	9131c800 	add	x0, x0, #0xc72
    401026dc:	97fffaf3 	bl	401012a8 <tf_printf>
    401026e0:	97fffc25 	bl	40101774 <panic_handler>
    401026e4:	52800004 	mov	w4, #0x0                   	// #0
    401026e8:	2a1803e3 	mov	w3, w24
    401026ec:	52801002 	mov	w2, #0x80                  	// #128
    401026f0:	2a1703e1 	mov	w1, w23
    401026f4:	97fffefd 	bl	401022e8 <load_data_from_storage>
    401026f8:	36f80180 	tbz	w0, #31, 40102728 <load_blcp_2nd+0x138>
    401026fc:	2a0003e1 	mov	w1, w0
    40102700:	f0000040 	adrp	x0, 4010d000 <ddrc_init+0x19c>
    40102704:	912f5800 	add	x0, x0, #0xbd6
    40102708:	97fffae8 	bl	401012a8 <tf_printf>
    4010270c:	52800020 	mov	w0, #0x1                   	// #1
    40102710:	94001fa9 	bl	4010a5b4 <set_boot_flag_2nd>
    40102714:	f0000040 	adrp	x0, 4010d000 <ddrc_init+0x19c>
    40102718:	91316800 	add	x0, x0, #0xc5a
    4010271c:	97fffae3 	bl	401012a8 <tf_printf>
    40102720:	12800000 	mov	w0, #0xffffffff            	// #-1
    40102724:	17ffffdd 	b	40102698 <load_blcp_2nd+0xa8>
    40102728:	94001fa4 	bl	4010a5b8 <header_verify_2nd>
    4010272c:	35ffff00 	cbnz	w0, 4010270c <load_blcp_2nd+0x11c>
    40102730:	b9400aa0 	ldr	w0, [x21,#8]
    40102734:	b9002ac0 	str	w0, [x22,#40]
    40102738:	52801016 	mov	w22, #0x80                  	// #128
    4010273c:	9108029a 	add	x26, x20, #0x200
    40102740:	2a1303e1 	mov	w1, w19
    40102744:	2a1703e2 	mov	w2, w23
    40102748:	f0000040 	adrp	x0, 4010d000 <ddrc_init+0x19c>
    4010274c:	912fe400 	add	x0, x0, #0xbf9
    40102750:	2a1303f3 	mov	w19, w19
    40102754:	b9402b43 	ldr	w3, [x26,#40]
    40102758:	97fffad4 	bl	401012a8 <tf_printf>
    4010275c:	b9402b42 	ldr	w2, [x26,#40]
    40102760:	52800004 	mov	w4, #0x0                   	// #0
    40102764:	2a1803e3 	mov	w3, w24
    40102768:	0b1702c1 	add	w1, w22, w23
    4010276c:	aa1303e0 	mov	x0, x19
    40102770:	97fffede 	bl	401022e8 <load_data_from_storage>
    40102774:	37fffcc0 	tbnz	w0, #31, 4010270c <load_blcp_2nd+0x11c>
    40102778:	b5000515 	cbnz	x21, 40102818 <load_blcp_2nd+0x228>
    4010277c:	f9400261 	ldr	x1, [x19]
    40102780:	91080294 	add	x20, x20, #0x200
    40102784:	f0000040 	adrp	x0, 4010d000 <ddrc_init+0x19c>
    40102788:	91309c00 	add	x0, x0, #0xc27
    4010278c:	97fffac7 	bl	401012a8 <tf_printf>
    40102790:	29450283 	ldp	w3, w0, [x20,#40]
    40102794:	aa1303e2 	mov	x2, x19
    40102798:	52800024 	mov	w4, #0x1                   	// #1
    4010279c:	910163a1 	add	x1, x29, #0x58
    401027a0:	d2800f93 	mov	x19, #0x7c                  	// #124
    401027a4:	97ffff1c 	bl	40102414 <bl2_decompress>
    401027a8:	f2a1c013 	movk	x19, #0xe00, lsl #16
    401027ac:	f9402fa1 	ldr	x1, [x29,#88]
    401027b0:	b9402e80 	ldr	w0, [x20,#44]
    401027b4:	94002bff 	bl	4010d7b0 <flush_dcache_range>
    401027b8:	b9400276 	ldr	w22, [x19]
    401027bc:	52800000 	mov	w0, #0x0                   	// #0
    401027c0:	97fffec9 	bl	401022e4 <init_comm_info>
    401027c4:	97fbf617 	bl	40000020 <p_rom_api_get_boot_src>
    401027c8:	5299d4a1 	mov	w1, #0xcea5                	// #52901
    401027cc:	6b01001f 	cmp	w0, w1
    401027d0:	54000180 	b.eq	40102800 <load_blcp_2nd+0x210>
    401027d4:	f9466f35 	ldr	x21, [x25,#3288]
    401027d8:	97fffebb 	bl	401022c4 <read_time_ms>
    401027dc:	39001aa0 	strb	w0, [x21,#6]
    401027e0:	d3483c00 	ubfx	x0, x0, #8, #8
    401027e4:	39001ea0 	strb	w0, [x21,#7]
    401027e8:	5281bde0 	mov	w0, #0xdef                 	// #3567
    401027ec:	72a15780 	movk	w0, #0xabc, lsl #16
    401027f0:	6b0002df 	cmp	w22, w0
    401027f4:	b9402e80 	ldr	w0, [x20,#44]
    401027f8:	54000181 	b.ne	40102828 <load_blcp_2nd+0x238>
    401027fc:	b9000260 	str	w0, [x19]
    40102800:	f0000040 	adrp	x0, 4010d000 <ddrc_init+0x19c>
    40102804:	91314800 	add	x0, x0, #0xc52
    40102808:	97fffaa8 	bl	401012a8 <tf_printf>
    4010280c:	52800000 	mov	w0, #0x0                   	// #0
    40102810:	94001f69 	bl	4010a5b4 <set_boot_flag_2nd>
    40102814:	17ffffa0 	b	40102694 <load_blcp_2nd+0xa4>
    40102818:	aa1303e0 	mov	x0, x19
    4010281c:	94001f7d 	bl	4010a610 <verify_2nd>
    40102820:	34fffae0 	cbz	w0, 4010277c <load_blcp_2nd+0x18c>
    40102824:	17ffffba 	b	4010270c <load_blcp_2nd+0x11c>
    40102828:	97fffbe3 	bl	401017b4 <reset_c906l>
    4010282c:	17fffff5 	b	40102800 <load_blcp_2nd+0x210>
    40102830:	b9402ac1 	ldr	w1, [x22,#40]
    40102834:	0b010000 	add	w0, w0, w1
    40102838:	6b00007f 	cmp	w3, w0
    4010283c:	54000068 	b.hi	40102848 <load_blcp_2nd+0x258>
    40102840:	6b00005f 	cmp	w2, w0
    40102844:	54000088 	b.hi	40102854 <load_blcp_2nd+0x264>
    40102848:	f0000040 	adrp	x0, 4010d000 <ddrc_init+0x19c>
    4010284c:	91328000 	add	x0, x0, #0xca0
    40102850:	17ffffa3 	b	401026dc <load_blcp_2nd+0xec>
    40102854:	94001f89 	bl	4010a678 <get_head_2nd>
    40102858:	aa0003f5 	mov	x21, x0
    4010285c:	b5fff440 	cbnz	x0, 401026e4 <load_blcp_2nd+0xf4>
    40102860:	52a00200 	mov	w0, #0x100000              	// #1048576
    40102864:	b9002ac0 	str	w0, [x22,#40]
    40102868:	52800016 	mov	w22, #0x0                   	// #0
    4010286c:	17ffffb4 	b	4010273c <load_blcp_2nd+0x14c>

0000000040102870 <load_user_param_and_logo>:
    40102870:	d10103ff 	sub	sp, sp, #0x40
    40102874:	a9017bfd 	stp	x29, x30, [sp,#16]
    40102878:	910043fd 	add	x29, sp, #0x10
    4010287c:	a90253f3 	stp	x19, x20, [sp,#32]
    40102880:	900000b4 	adrp	x20, 40116000 <sram_union_buf+0x3e00>
    40102884:	910a0293 	add	x19, x20, #0x280
    40102888:	f9001bf5 	str	x21, [sp,#48]
    4010288c:	2a0003f5 	mov	w21, w0
    40102890:	29428a61 	ldp	w1, w2, [x19,#20]
    40102894:	29438e65 	ldp	w5, w3, [x19,#28]
    40102898:	29449a64 	ldp	w4, w6, [x19,#36]
    4010289c:	b9402e67 	ldr	w7, [x19,#44]
    401028a0:	b9403260 	ldr	w0, [x19,#48]
    401028a4:	b90003e0 	str	w0, [sp]
    401028a8:	f0000040 	adrp	x0, 4010d000 <ddrc_init+0x19c>
    401028ac:	913da400 	add	x0, x0, #0xf69
    401028b0:	97fffa7e 	bl	401012a8 <tf_printf>
    401028b4:	b9401e62 	ldr	w2, [x19,#28]
    401028b8:	34000122 	cbz	w2, 401028dc <load_user_param_and_logo+0x6c>
    401028bc:	29428660 	ldp	w0, w1, [x19,#20]
    401028c0:	52800004 	mov	w4, #0x0                   	// #0
    401028c4:	2a1503e3 	mov	w3, w21
    401028c8:	97fffe88 	bl	401022e8 <load_data_from_storage>
    401028cc:	37f80540 	tbnz	w0, #31, 40102974 <load_user_param_and_logo+0x104>
    401028d0:	b9401660 	ldr	w0, [x19,#20]
    401028d4:	b9401e61 	ldr	w1, [x19,#28]
    401028d8:	94002bb6 	bl	4010d7b0 <flush_dcache_range>
    401028dc:	910a0293 	add	x19, x20, #0x280
    401028e0:	b9402260 	ldr	w0, [x19,#32]
    401028e4:	34000140 	cbz	w0, 4010290c <load_user_param_and_logo+0x9c>
    401028e8:	b9401e62 	ldr	w2, [x19,#28]
    401028ec:	52800004 	mov	w4, #0x0                   	// #0
    401028f0:	b9402661 	ldr	w1, [x19,#36]
    401028f4:	2a1503e3 	mov	w3, w21
    401028f8:	2a0003e0 	mov	w0, w0
    401028fc:	97fffe7b 	bl	401022e8 <load_data_from_storage>
    40102900:	37f803a0 	tbnz	w0, #31, 40102974 <load_user_param_and_logo+0x104>
    40102904:	29438261 	ldp	w1, w0, [x19,#28]
    40102908:	94002baa 	bl	4010d7b0 <flush_dcache_range>
    4010290c:	910a0293 	add	x19, x20, #0x280
    40102910:	b9403262 	ldr	w2, [x19,#48]
    40102914:	34000122 	cbz	w2, 40102938 <load_user_param_and_logo+0xc8>
    40102918:	29450660 	ldp	w0, w1, [x19,#40]
    4010291c:	52800004 	mov	w4, #0x0                   	// #0
    40102920:	2a1503e3 	mov	w3, w21
    40102924:	97fffe71 	bl	401022e8 <load_data_from_storage>
    40102928:	37f80260 	tbnz	w0, #31, 40102974 <load_user_param_and_logo+0x104>
    4010292c:	b9402a60 	ldr	w0, [x19,#40]
    40102930:	b9403261 	ldr	w1, [x19,#48]
    40102934:	94002b9f 	bl	4010d7b0 <flush_dcache_range>
    40102938:	910a0294 	add	x20, x20, #0x280
    4010293c:	b9403e82 	ldr	w2, [x20,#60]
    40102940:	34000122 	cbz	w2, 40102964 <load_user_param_and_logo+0xf4>
    40102944:	29468680 	ldp	w0, w1, [x20,#52]
    40102948:	52800004 	mov	w4, #0x0                   	// #0
    4010294c:	2a1503e3 	mov	w3, w21
    40102950:	97fffe66 	bl	401022e8 <load_data_from_storage>
    40102954:	37f80100 	tbnz	w0, #31, 40102974 <load_user_param_and_logo+0x104>
    40102958:	b9403680 	ldr	w0, [x20,#52]
    4010295c:	b9403e81 	ldr	w1, [x20,#60]
    40102960:	94002b94 	bl	4010d7b0 <flush_dcache_range>
    40102964:	f0000040 	adrp	x0, 4010d000 <ddrc_init+0x19c>
    40102968:	913e6800 	add	x0, x0, #0xf9a
    4010296c:	97fffa4f 	bl	401012a8 <tf_printf>
    40102970:	52800000 	mov	w0, #0x0                   	// #0
    40102974:	a94253f3 	ldp	x19, x20, [sp,#32]
    40102978:	a9417bfd 	ldp	x29, x30, [sp,#16]
    4010297c:	f9401bf5 	ldr	x21, [sp,#48]
    40102980:	910103ff 	add	sp, sp, #0x40
    40102984:	d65f03c0 	ret

0000000040102988 <load_monitor>:
    40102988:	a9bd7bfd 	stp	x29, x30, [sp,#-48]!
    4010298c:	910003fd 	mov	x29, sp
    40102990:	a90153f3 	stp	x19, x20, [sp,#16]
    40102994:	f0000074 	adrp	x20, 40111000 <__BSS_START__>
    40102998:	91080293 	add	x19, x20, #0x200
    4010299c:	a9025bf5 	stp	x21, x22, [sp,#32]
    401029a0:	aa0103f5 	mov	x21, x1
    401029a4:	2a0003f6 	mov	w22, w0
    401029a8:	f0000040 	adrp	x0, 4010d000 <ddrc_init+0x19c>
    401029ac:	91381400 	add	x0, x0, #0xe05
    401029b0:	29468e61 	ldp	w1, w3, [x19,#52]
    401029b4:	b9403e62 	ldr	w2, [x19,#60]
    401029b8:	97fffa3c 	bl	401012a8 <tf_printf>
    401029bc:	b9403e60 	ldr	w0, [x19,#60]
    401029c0:	350000c0 	cbnz	w0, 401029d8 <load_monitor+0x50>
    401029c4:	f0000040 	adrp	x0, 4010d000 <ddrc_init+0x19c>
    401029c8:	91386c00 	add	x0, x0, #0xe1b
    401029cc:	97fffa37 	bl	401012a8 <tf_printf>
    401029d0:	52800013 	mov	w19, #0x0                   	// #0
    401029d4:	14000049 	b	40102af8 <load_monitor+0x170>
    401029d8:	900000a1 	adrp	x1, 40116000 <sram_union_buf+0x3e00>
    401029dc:	910a0021 	add	x1, x1, #0x280
    401029e0:	b9404423 	ldr	w3, [x1,#68]
    401029e4:	6b03001f 	cmp	w0, w3
    401029e8:	540000a3 	b.cc	401029fc <load_monitor+0x74>
    401029ec:	b9404821 	ldr	w1, [x1,#72]
    401029f0:	0b010061 	add	w1, w3, w1
    401029f4:	6b01001f 	cmp	w0, w1
    401029f8:	540003e3 	b.cc	40102a74 <load_monitor+0xec>
    401029fc:	2a0003e1 	mov	w1, w0
    40102a00:	f0000040 	adrp	x0, 4010d000 <ddrc_init+0x19c>
    40102a04:	9139ac00 	add	x0, x0, #0xe6b
    40102a08:	97fffa28 	bl	401012a8 <tf_printf>
    40102a0c:	97fffb5a 	bl	40101774 <panic_handler>
    40102a10:	b9403661 	ldr	w1, [x19,#52]
    40102a14:	2a1603e3 	mov	w3, w22
    40102a18:	2a0203e2 	mov	w2, w2
    40102a1c:	97fbf591 	bl	40000060 <p_rom_api_load_image>
    40102a20:	14000029 	b	40102ac4 <load_monitor+0x13c>
    40102a24:	90000060 	adrp	x0, 4010e000 <__func__.4151+0x10>
    40102a28:	d2800002 	mov	x2, #0x0                   	// #0
    40102a2c:	f9466803 	ldr	x3, [x0,#3280]
    40102a30:	29470281 	ldp	w1, w0, [x20,#56]
    40102a34:	94001f13 	bl	4010a680 <dec_verify_image>
    40102a38:	2a0003f3 	mov	w19, w0
    40102a3c:	36f800c0 	tbz	w0, #31, 40102a54 <load_monitor+0xcc>
    40102a40:	2a0003e1 	mov	w1, w0
    40102a44:	f0000040 	adrp	x0, 4010d000 <ddrc_init+0x19c>
    40102a48:	91392800 	add	x0, x0, #0xe4a
    40102a4c:	97fffa17 	bl	401012a8 <tf_printf>
    40102a50:	1400002a 	b	40102af8 <load_monitor+0x170>
    40102a54:	29470281 	ldp	w1, w0, [x20,#56]
    40102a58:	94002b56 	bl	4010d7b0 <flush_dcache_range>
    40102a5c:	f0000040 	adrp	x0, 4010d000 <ddrc_init+0x19c>
    40102a60:	91399000 	add	x0, x0, #0xe64
    40102a64:	97fffa11 	bl	401012a8 <tf_printf>
    40102a68:	b9403e80 	ldr	w0, [x20,#60]
    40102a6c:	f90002a0 	str	x0, [x21]
    40102a70:	17ffffd8 	b	401029d0 <load_monitor+0x48>
    40102a74:	b9403a62 	ldr	w2, [x19,#56]
    40102a78:	0b020004 	add	w4, w0, w2
    40102a7c:	6b04007f 	cmp	w3, w4
    40102a80:	54000068 	b.hi	40102a8c <load_monitor+0x104>
    40102a84:	6b04003f 	cmp	w1, w4
    40102a88:	540000a8 	b.hi	40102a9c <load_monitor+0x114>
    40102a8c:	f0000040 	adrp	x0, 4010d000 <ddrc_init+0x19c>
    40102a90:	2a0203e1 	mov	w1, w2
    40102a94:	913a6000 	add	x0, x0, #0xe98
    40102a98:	17ffffdc 	b	40102a08 <load_monitor+0x80>
    40102a9c:	f0000061 	adrp	x1, 40111000 <__BSS_START__>
    40102aa0:	2a0003e0 	mov	w0, w0
    40102aa4:	b9419c23 	ldr	w3, [x1,#412]
    40102aa8:	5299c061 	mov	w1, #0xce03                	// #52739
    40102aac:	6b01007f 	cmp	w3, w1
    40102ab0:	54fffb01 	b.ne	40102a10 <load_monitor+0x88>
    40102ab4:	b9403661 	ldr	w1, [x19,#52]
    40102ab8:	52800024 	mov	w4, #0x1                   	// #1
    40102abc:	2a1603e3 	mov	w3, w22
    40102ac0:	97fffe0a 	bl	401022e8 <load_data_from_storage>
    40102ac4:	2a0003f3 	mov	w19, w0
    40102ac8:	37f80180 	tbnz	w0, #31, 40102af8 <load_monitor+0x170>
    40102acc:	91080294 	add	x20, x20, #0x200
    40102ad0:	29470281 	ldp	w1, w0, [x20,#56]
    40102ad4:	97fbf573 	bl	400000a0 <p_rom_api_image_crc>
    40102ad8:	b9403282 	ldr	w2, [x20,#48]
    40102adc:	6b02001f 	cmp	w0, w2
    40102ae0:	54fffa20 	b.eq	40102a24 <load_monitor+0x9c>
    40102ae4:	12800013 	mov	w19, #0xffffffff            	// #-1
    40102ae8:	2a0003e1 	mov	w1, w0
    40102aec:	f0000040 	adrp	x0, 4010d000 <ddrc_init+0x19c>
    40102af0:	9138a800 	add	x0, x0, #0xe2a
    40102af4:	97fff9ed 	bl	401012a8 <tf_printf>
    40102af8:	2a1303e0 	mov	w0, w19
    40102afc:	a94153f3 	ldp	x19, x20, [sp,#16]
    40102b00:	a9425bf5 	ldp	x21, x22, [sp,#32]
    40102b04:	a8c37bfd 	ldp	x29, x30, [sp],#48
    40102b08:	d65f03c0 	ret

0000000040102b0c <load_bl32>:
    40102b0c:	a9bd7bfd 	stp	x29, x30, [sp,#-48]!
    40102b10:	910003fd 	mov	x29, sp
    40102b14:	a90153f3 	stp	x19, x20, [sp,#16]
    40102b18:	f0000074 	adrp	x20, 40111000 <__BSS_START__>
    40102b1c:	91080293 	add	x19, x20, #0x200
    40102b20:	f90013f5 	str	x21, [sp,#32]
    40102b24:	2a0003f5 	mov	w21, w0
    40102b28:	f0000040 	adrp	x0, 4010d000 <ddrc_init+0x19c>
    40102b2c:	912be800 	add	x0, x0, #0xafa
    40102b30:	29488e61 	ldp	w1, w3, [x19,#68]
    40102b34:	b9404e62 	ldr	w2, [x19,#76]
    40102b38:	97fff9dc 	bl	401012a8 <tf_printf>
    40102b3c:	b9404e60 	ldr	w0, [x19,#76]
    40102b40:	350000c0 	cbnz	w0, 40102b58 <load_bl32+0x4c>
    40102b44:	f0000040 	adrp	x0, 4010d000 <ddrc_init+0x19c>
    40102b48:	91386c00 	add	x0, x0, #0xe1b
    40102b4c:	97fff9d7 	bl	401012a8 <tf_printf>
    40102b50:	52800013 	mov	w19, #0x0                   	// #0
    40102b54:	1400002b 	b	40102c00 <load_bl32+0xf4>
    40102b58:	52b00004 	mov	w4, #0x80000000            	// #-2147483648
    40102b5c:	0b040001 	add	w1, w0, w4
    40102b60:	12bf0003 	mov	w3, #0x7ffffff             	// #134217727
    40102b64:	6b03003f 	cmp	w1, w3
    40102b68:	540000c9 	b.ls	40102b80 <load_bl32+0x74>
    40102b6c:	2a0003e1 	mov	w1, w0
    40102b70:	f0000040 	adrp	x0, 4010d000 <ddrc_init+0x19c>
    40102b74:	912c4800 	add	x0, x0, #0xb12
    40102b78:	97fff9cc 	bl	401012a8 <tf_printf>
    40102b7c:	97fffafe 	bl	40101774 <panic_handler>
    40102b80:	b9404a62 	ldr	w2, [x19,#72]
    40102b84:	0b020001 	add	w1, w0, w2
    40102b88:	0b040021 	add	w1, w1, w4
    40102b8c:	6b03003f 	cmp	w1, w3
    40102b90:	540000a9 	b.ls	40102ba4 <load_bl32+0x98>
    40102b94:	f0000040 	adrp	x0, 4010d000 <ddrc_init+0x19c>
    40102b98:	2a0203e1 	mov	w1, w2
    40102b9c:	912cf000 	add	x0, x0, #0xb3c
    40102ba0:	17fffff6 	b	40102b78 <load_bl32+0x6c>
    40102ba4:	f0000061 	adrp	x1, 40111000 <__BSS_START__>
    40102ba8:	2a0003e0 	mov	w0, w0
    40102bac:	b9419c23 	ldr	w3, [x1,#412]
    40102bb0:	5299c061 	mov	w1, #0xce03                	// #52739
    40102bb4:	6b01007f 	cmp	w3, w1
    40102bb8:	540002e1 	b.ne	40102c14 <load_bl32+0x108>
    40102bbc:	b9404661 	ldr	w1, [x19,#68]
    40102bc0:	52800024 	mov	w4, #0x1                   	// #1
    40102bc4:	2a1503e3 	mov	w3, w21
    40102bc8:	97fffdc8 	bl	401022e8 <load_data_from_storage>
    40102bcc:	2a0003f3 	mov	w19, w0
    40102bd0:	37f80180 	tbnz	w0, #31, 40102c00 <load_bl32+0xf4>
    40102bd4:	91080294 	add	x20, x20, #0x200
    40102bd8:	29490281 	ldp	w1, w0, [x20,#72]
    40102bdc:	97fbf531 	bl	400000a0 <p_rom_api_image_crc>
    40102be0:	b9404282 	ldr	w2, [x20,#64]
    40102be4:	6b02001f 	cmp	w0, w2
    40102be8:	54000200 	b.eq	40102c28 <load_bl32+0x11c>
    40102bec:	12800013 	mov	w19, #0xffffffff            	// #-1
    40102bf0:	2a0003e1 	mov	w1, w0
    40102bf4:	f0000040 	adrp	x0, 4010d000 <ddrc_init+0x19c>
    40102bf8:	9138a800 	add	x0, x0, #0xe2a
    40102bfc:	97fff9ab 	bl	401012a8 <tf_printf>
    40102c00:	2a1303e0 	mov	w0, w19
    40102c04:	f94013f5 	ldr	x21, [sp,#32]
    40102c08:	a94153f3 	ldp	x19, x20, [sp,#16]
    40102c0c:	a8c37bfd 	ldp	x29, x30, [sp],#48
    40102c10:	d65f03c0 	ret
    40102c14:	b9404661 	ldr	w1, [x19,#68]
    40102c18:	2a1503e3 	mov	w3, w21
    40102c1c:	2a0203e2 	mov	w2, w2
    40102c20:	97fbf510 	bl	40000060 <p_rom_api_load_image>
    40102c24:	17ffffea 	b	40102bcc <load_bl32+0xc0>
    40102c28:	90000060 	adrp	x0, 4010e000 <__func__.4151+0x10>
    40102c2c:	d2800002 	mov	x2, #0x0                   	// #0
    40102c30:	f9466803 	ldr	x3, [x0,#3280]
    40102c34:	29490281 	ldp	w1, w0, [x20,#72]
    40102c38:	94001e92 	bl	4010a680 <dec_verify_image>
    40102c3c:	2a0003f3 	mov	w19, w0
    40102c40:	36f800c0 	tbz	w0, #31, 40102c58 <load_bl32+0x14c>
    40102c44:	2a0003e1 	mov	w1, w0
    40102c48:	f0000040 	adrp	x0, 4010d000 <ddrc_init+0x19c>
    40102c4c:	91392800 	add	x0, x0, #0xe4a
    40102c50:	97fff996 	bl	401012a8 <tf_printf>
    40102c54:	17ffffeb 	b	40102c00 <load_bl32+0xf4>
    40102c58:	29490281 	ldp	w1, w0, [x20,#72]
    40102c5c:	94002ad5 	bl	4010d7b0 <flush_dcache_range>
    40102c60:	f0000040 	adrp	x0, 4010d000 <ddrc_init+0x19c>
    40102c64:	91399000 	add	x0, x0, #0xe64
    40102c68:	17ffffb9 	b	40102b4c <load_bl32+0x40>

0000000040102c6c <load_loader_2nd>:
    40102c6c:	a9ba7bfd 	stp	x29, x30, [sp,#-96]!
    40102c70:	910003fd 	mov	x29, sp
    40102c74:	a90153f3 	stp	x19, x20, [sp,#16]
    40102c78:	f0000073 	adrp	x19, 40111000 <__BSS_START__>
    40102c7c:	a9025bf5 	stp	x21, x22, [sp,#32]
    40102c80:	91080275 	add	x21, x19, #0x200
    40102c84:	a9046bf9 	stp	x25, x26, [sp,#64]
    40102c88:	aa0103f9 	mov	x25, x1
    40102c8c:	a90363f7 	stp	x23, x24, [sp,#48]
    40102c90:	f000007a 	adrp	x26, 40111000 <__BSS_START__>
    40102c94:	2a0003f8 	mov	w24, w0
    40102c98:	f0000040 	adrp	x0, 4010d000 <ddrc_init+0x19c>
    40102c9c:	b94056a1 	ldr	w1, [x21,#84]
    40102ca0:	91352000 	add	x0, x0, #0xd48
    40102ca4:	90000094 	adrp	x20, 40112000 <fip_param2+0xe00>
    40102ca8:	97fff980 	bl	401012a8 <tf_printf>
    40102cac:	b9419f41 	ldr	w1, [x26,#412]
    40102cb0:	5299c060 	mov	w0, #0xce03                	// #52739
    40102cb4:	6b00003f 	cmp	w1, w0
    40102cb8:	54000801 	b.ne	40102db8 <load_loader_2nd+0x14c>
    40102cbc:	b94056a1 	ldr	w1, [x21,#84]
    40102cc0:	52800024 	mov	w4, #0x1                   	// #1
    40102cc4:	2a1803e3 	mov	w3, w24
    40102cc8:	52804002 	mov	w2, #0x200                 	// #512
    40102ccc:	91080280 	add	x0, x20, #0x200
    40102cd0:	97fffd86 	bl	401022e8 <load_data_from_storage>
    40102cd4:	37f808a0 	tbnz	w0, #31, 40102de8 <load_loader_2nd+0x17c>
    40102cd8:	91080296 	add	x22, x20, #0x200
    40102cdc:	f0000040 	adrp	x0, 4010d000 <ddrc_init+0x19c>
    40102ce0:	91355000 	add	x0, x0, #0xd54
    40102ce4:	29408ac1 	ldp	w1, w2, [x22,#4]
    40102ce8:	b9400ec4 	ldr	w4, [x22,#12]
    40102cec:	f9400ac3 	ldr	x3, [x22,#16]
    40102cf0:	1107fc95 	add	w21, w4, #0x1ff
    40102cf4:	12175ab5 	and	w21, w21, #0xfffffe00
    40102cf8:	2a1503e5 	mov	w5, w21
    40102cfc:	97fff96b 	bl	401012a8 <tf_printf>
    40102d00:	b94006c0 	ldr	w0, [x22,#4]
    40102d04:	52866841 	mov	w1, #0x3342                	// #13122
    40102d08:	72a68b41 	movk	w1, #0x345a, lsl #16
    40102d0c:	6b01001f 	cmp	w0, w1
    40102d10:	54000100 	b.eq	40102d30 <load_loader_2nd+0xc4>
    40102d14:	52866841 	mov	w1, #0x3342                	// #13122
    40102d18:	72a829a1 	movk	w1, #0x414d, lsl #16
    40102d1c:	6b01001f 	cmp	w0, w1
    40102d20:	54000fa0 	b.eq	40102f14 <load_loader_2nd+0x2a8>
    40102d24:	52800017 	mov	w23, #0x0                   	// #0
    40102d28:	f9400ad6 	ldr	x22, [x22,#16]
    40102d2c:	14000008 	b	40102d4c <load_loader_2nd+0xe0>
    40102d30:	52800057 	mov	w23, #0x2                   	// #2
    40102d34:	2a1703e1 	mov	w1, w23
    40102d38:	f0000040 	adrp	x0, 4010d000 <ddrc_init+0x19c>
    40102d3c:	9137e400 	add	x0, x0, #0xdf9
    40102d40:	97fff95a 	bl	401012a8 <tf_printf>
    40102d44:	900000a0 	adrp	x0, 40116000 <sram_union_buf+0x3e00>
    40102d48:	b942cc16 	ldr	w22, [x0,#716]
    40102d4c:	b9419f41 	ldr	w1, [x26,#412]
    40102d50:	5299c060 	mov	w0, #0xce03                	// #52739
    40102d54:	91080273 	add	x19, x19, #0x200
    40102d58:	6b00003f 	cmp	w1, w0
    40102d5c:	540003a1 	b.ne	40102dd0 <load_loader_2nd+0x164>
    40102d60:	b9405661 	ldr	w1, [x19,#84]
    40102d64:	52800024 	mov	w4, #0x1                   	// #1
    40102d68:	2a1803e3 	mov	w3, w24
    40102d6c:	2a1503e2 	mov	w2, w21
    40102d70:	aa1603e0 	mov	x0, x22
    40102d74:	97fffd5d 	bl	401022e8 <load_data_from_storage>
    40102d78:	2a0003f3 	mov	w19, w0
    40102d7c:	37f80540 	tbnz	w0, #31, 40102e24 <load_loader_2nd+0x1b8>
    40102d80:	91080298 	add	x24, x20, #0x200
    40102d84:	910032d3 	add	x19, x22, #0xc
    40102d88:	aa1303e0 	mov	x0, x19
    40102d8c:	b9400f01 	ldr	w1, [x24,#12]
    40102d90:	51003021 	sub	w1, w1, #0xc
    40102d94:	97fbf4c3 	bl	400000a0 <p_rom_api_image_crc>
    40102d98:	b9400b02 	ldr	w2, [x24,#8]
    40102d9c:	6b02001f 	cmp	w0, w2
    40102da0:	54000280 	b.eq	40102df0 <load_loader_2nd+0x184>
    40102da4:	2a0003e1 	mov	w1, w0
    40102da8:	f0000040 	adrp	x0, 4010d000 <ddrc_init+0x19c>
    40102dac:	9135d000 	add	x0, x0, #0xd74
    40102db0:	97fff93e 	bl	401012a8 <tf_printf>
    40102db4:	1400000d 	b	40102de8 <load_loader_2nd+0x17c>
    40102db8:	b94056a1 	ldr	w1, [x21,#84]
    40102dbc:	2a1803e3 	mov	w3, w24
    40102dc0:	d2804002 	mov	x2, #0x200                 	// #512
    40102dc4:	91080280 	add	x0, x20, #0x200
    40102dc8:	97fbf4a6 	bl	40000060 <p_rom_api_load_image>
    40102dcc:	17ffffc2 	b	40102cd4 <load_loader_2nd+0x68>
    40102dd0:	b9405661 	ldr	w1, [x19,#84]
    40102dd4:	2a1803e3 	mov	w3, w24
    40102dd8:	93407ea2 	sxtw	x2, w21
    40102ddc:	aa1603e0 	mov	x0, x22
    40102de0:	97fbf4a0 	bl	40000060 <p_rom_api_load_image>
    40102de4:	36fffce0 	tbz	w0, #31, 40102d80 <load_loader_2nd+0x114>
    40102de8:	12800013 	mov	w19, #0xffffffff            	// #-1
    40102dec:	1400000e 	b	40102e24 <load_loader_2nd+0x1b8>
    40102df0:	90000060 	adrp	x0, 4010e000 <__func__.4151+0x10>
    40102df4:	b9400f01 	ldr	w1, [x24,#12]
    40102df8:	d2800282 	mov	x2, #0x14                  	// #20
    40102dfc:	f9466803 	ldr	x3, [x0,#3280]
    40102e00:	51003021 	sub	w1, w1, #0xc
    40102e04:	aa1303e0 	mov	x0, x19
    40102e08:	94001e1e 	bl	4010a680 <dec_verify_image>
    40102e0c:	2a0003f3 	mov	w19, w0
    40102e10:	36f80180 	tbz	w0, #31, 40102e40 <load_loader_2nd+0x1d4>
    40102e14:	2a0003e1 	mov	w1, w0
    40102e18:	f0000040 	adrp	x0, 4010d000 <ddrc_init+0x19c>
    40102e1c:	91365c00 	add	x0, x0, #0xd97
    40102e20:	97fff922 	bl	401012a8 <tf_printf>
    40102e24:	2a1303e0 	mov	w0, w19
    40102e28:	a94153f3 	ldp	x19, x20, [sp,#16]
    40102e2c:	a9425bf5 	ldp	x21, x22, [sp,#32]
    40102e30:	a94363f7 	ldp	x23, x24, [sp,#48]
    40102e34:	a9446bf9 	ldp	x25, x26, [sp,#64]
    40102e38:	a8c67bfd 	ldp	x29, x30, [sp],#96
    40102e3c:	d65f03c0 	ret
    40102e40:	90000073 	adrp	x19, 4010e000 <__func__.4151+0x10>
    40102e44:	f9466e7a 	ldr	x26, [x19,#3288]
    40102e48:	97fffd1f 	bl	401022c4 <read_time_ms>
    40102e4c:	39002340 	strb	w0, [x26,#8]
    40102e50:	d3483c00 	ubfx	x0, x0, #8, #8
    40102e54:	39002740 	strb	w0, [x26,#9]
    40102e58:	97fffa9a 	bl	401018c0 <sys_switch_all_to_pll>
    40102e5c:	f9466e7a 	ldr	x26, [x19,#3288]
    40102e60:	97fffd19 	bl	401022c4 <read_time_ms>
    40102e64:	39002b40 	strb	w0, [x26,#10]
    40102e68:	d3483c00 	ubfx	x0, x0, #8, #8
    40102e6c:	39002f40 	strb	w0, [x26,#11]
    40102e70:	aa1303fa 	mov	x26, x19
    40102e74:	340002f7 	cbz	w23, 40102ed0 <load_loader_2nd+0x264>
    40102e78:	910183b3 	add	x19, x29, #0x60
    40102e7c:	f9400b15 	ldr	x21, [x24,#16]
    40102e80:	d2a02000 	mov	x0, #0x1000000             	// #16777216
    40102e84:	d2800402 	mov	x2, #0x20                  	// #32
    40102e88:	aa1603e1 	mov	x1, x22
    40102e8c:	f81f8e60 	str	x0, [x19,#-8]!
    40102e90:	aa1503e0 	mov	x0, x21
    40102e94:	97fffcb7 	bl	40102170 <memcpy>
    40102e98:	b9400f03 	ldr	w3, [x24,#12]
    40102e9c:	2a1703e4 	mov	w4, w23
    40102ea0:	910082c2 	add	x2, x22, #0x20
    40102ea4:	aa1303e1 	mov	x1, x19
    40102ea8:	910082a0 	add	x0, x21, #0x20
    40102eac:	94001d80 	bl	4010a4ac <decompress>
    40102eb0:	36f800e0 	tbz	w0, #31, 40102ecc <load_loader_2nd+0x260>
    40102eb4:	f9402fa2 	ldr	x2, [x29,#88]
    40102eb8:	2a0003e1 	mov	w1, w0
    40102ebc:	f0000040 	adrp	x0, 4010d000 <ddrc_init+0x19c>
    40102ec0:	9136d000 	add	x0, x0, #0xdb4
    40102ec4:	97fff8f9 	bl	401012a8 <tf_printf>
    40102ec8:	17ffffc8 	b	40102de8 <load_loader_2nd+0x17c>
    40102ecc:	b9405bb5 	ldr	w21, [x29,#88]
    40102ed0:	91080294 	add	x20, x20, #0x200
    40102ed4:	93407ea1 	sxtw	x1, w21
    40102ed8:	f9400a80 	ldr	x0, [x20,#16]
    40102edc:	94002a35 	bl	4010d7b0 <flush_dcache_range>
    40102ee0:	f9466f53 	ldr	x19, [x26,#3288]
    40102ee4:	97fffcf8 	bl	401022c4 <read_time_ms>
    40102ee8:	39003260 	strb	w0, [x19,#12]
    40102eec:	d3483c00 	ubfx	x0, x0, #8, #8
    40102ef0:	39003660 	strb	w0, [x19,#13]
    40102ef4:	f0000040 	adrp	x0, 4010d000 <ddrc_init+0x19c>
    40102ef8:	91378c00 	add	x0, x0, #0xde3
    40102efc:	52800013 	mov	w19, #0x0                   	// #0
    40102f00:	97fff8ea 	bl	401012a8 <tf_printf>
    40102f04:	f9400a80 	ldr	x0, [x20,#16]
    40102f08:	91008000 	add	x0, x0, #0x20
    40102f0c:	f9000320 	str	x0, [x25]
    40102f10:	17ffffc5 	b	40102e24 <load_loader_2nd+0x1b8>
    40102f14:	52800037 	mov	w23, #0x1                   	// #1
    40102f18:	17ffff87 	b	40102d34 <load_loader_2nd+0xc8>

0000000040102f1c <load_rest>:
    40102f1c:	a9bc7bfd 	stp	x29, x30, [sp,#-64]!
    40102f20:	910003fd 	mov	x29, sp
    40102f24:	a90153f3 	stp	x19, x20, [sp,#16]
    40102f28:	a9025bf5 	stp	x21, x22, [sp,#32]
    40102f2c:	a9037fbf 	stp	xzr, xzr, [x29,#48]
    40102f30:	97fffbc4 	bl	40101e40 <sys_pll_init>
    40102f34:	97fbf43b 	bl	40000020 <p_rom_api_get_boot_src>
    40102f38:	f0000061 	adrp	x1, 40111000 <__BSS_START__>
    40102f3c:	5299c062 	mov	w2, #0xce03                	// #52739
    40102f40:	aa0103f4 	mov	x20, x1
    40102f44:	6b02001f 	cmp	w0, w2
    40102f48:	b9019c20 	str	w0, [x1,#412]
    40102f4c:	54000041 	b.ne	40102f54 <load_rest+0x38>
    40102f50:	94000719 	bl	40104bb4 <bm_emmc_init>
    40102f54:	91067294 	add	x20, x20, #0x19c
    40102f58:	52800013 	mov	w19, #0x0                   	// #0
    40102f5c:	97fbf459 	bl	400000c0 <p_rom_api_get_number_of_retries>
    40102f60:	6b00027f 	cmp	w19, w0
    40102f64:	5400008a 	b.ge	40102f74 <load_rest+0x58>
    40102f68:	2a1303e0 	mov	w0, w19
    40102f6c:	97fffd31 	bl	40102430 <load_param2>
    40102f70:	37f802a0 	tbnz	w0, #31, 40102fc4 <load_rest+0xa8>
    40102f74:	52800013 	mov	w19, #0x0                   	// #0
    40102f78:	5299d475 	mov	w21, #0xcea3                	// #52899
    40102f7c:	5299d4b6 	mov	w22, #0xcea5                	// #52901
    40102f80:	97fbf450 	bl	400000c0 <p_rom_api_get_number_of_retries>
    40102f84:	6b00027f 	cmp	w19, w0
    40102f88:	540000aa 	b.ge	40102f9c <load_rest+0x80>
    40102f8c:	b9400280 	ldr	w0, [x20]
    40102f90:	6b15001f 	cmp	w0, w21
    40102f94:	7a561004 	ccmp	w0, w22, #0x4, ne
    40102f98:	540001a1 	b.ne	40102fcc <load_rest+0xb0>
    40102f9c:	52800013 	mov	w19, #0x0                   	// #0
    40102fa0:	97fbf448 	bl	400000c0 <p_rom_api_get_number_of_retries>
    40102fa4:	6b00027f 	cmp	w19, w0
    40102fa8:	5400030a 	b.ge	40103008 <load_rest+0xec>
    40102fac:	9100c3a1 	add	x1, x29, #0x30
    40102fb0:	2a1303e0 	mov	w0, w19
    40102fb4:	97fffe75 	bl	40102988 <load_monitor>
    40102fb8:	36f801a0 	tbz	w0, #31, 40102fec <load_rest+0xd0>
    40102fbc:	11000673 	add	w19, w19, #0x1
    40102fc0:	17fffff8 	b	40102fa0 <load_rest+0x84>
    40102fc4:	11000673 	add	w19, w19, #0x1
    40102fc8:	17ffffe5 	b	40102f5c <load_rest+0x40>
    40102fcc:	2a1303e0 	mov	w0, w19
    40102fd0:	97fffe28 	bl	40102870 <load_user_param_and_logo>
    40102fd4:	37f80080 	tbnz	w0, #31, 40102fe4 <load_rest+0xc8>
    40102fd8:	2a1303e0 	mov	w0, w19
    40102fdc:	97fffd85 	bl	401025f0 <load_blcp_2nd>
    40102fe0:	36fffde0 	tbz	w0, #31, 40102f9c <load_rest+0x80>
    40102fe4:	11000673 	add	w19, w19, #0x1
    40102fe8:	17ffffe6 	b	40102f80 <load_rest+0x64>
    40102fec:	2a1303e0 	mov	w0, w19
    40102ff0:	97fffec7 	bl	40102b0c <load_bl32>
    40102ff4:	37fffe40 	tbnz	w0, #31, 40102fbc <load_rest+0xa0>
    40102ff8:	2a1303e0 	mov	w0, w19
    40102ffc:	94001da3 	bl	4010a688 <load_kernel>
    40103000:	7100041f 	cmp	w0, #0x1
    40103004:	54000260 	b.eq	40103050 <load_rest+0x134>
    40103008:	97fbf42e 	bl	400000c0 <p_rom_api_get_number_of_retries>
    4010300c:	6b00027f 	cmp	w19, w0
    40103010:	540002aa 	b.ge	40103064 <load_rest+0x148>
    40103014:	97fff7e1 	bl	40100f98 <sync_cache>
    40103018:	94002a43 	bl	4010d924 <console_flush>
    4010301c:	97fffbce 	bl	40101f54 <switch_rtc_mode_2nd_stage>
    40103020:	f9401ba1 	ldr	x1, [x29,#48]
    40103024:	b40004a1 	cbz	x1, 401030b8 <load_rest+0x19c>
    40103028:	d0000040 	adrp	x0, 4010d000 <ddrc_init+0x19c>
    4010302c:	913cb000 	add	x0, x0, #0xf2c
    40103030:	97fff89e 	bl	401012a8 <tf_printf>
    40103034:	a94307a0 	ldp	x0, x1, [x29,#48]
    40103038:	97fff833 	bl	40101104 <jump_to_monitor>
    4010303c:	a94153f3 	ldp	x19, x20, [sp,#16]
    40103040:	52800000 	mov	w0, #0x0                   	// #0
    40103044:	a9425bf5 	ldp	x21, x22, [sp,#32]
    40103048:	a8c47bfd 	ldp	x29, x30, [sp],#64
    4010304c:	d65f03c0 	ret
    40103050:	9100e3a1 	add	x1, x29, #0x38
    40103054:	2a1303e0 	mov	w0, w19
    40103058:	97ffff05 	bl	40102c6c <load_loader_2nd>
    4010305c:	36fffd60 	tbz	w0, #31, 40103008 <load_rest+0xec>
    40103060:	17ffffd7 	b	40102fbc <load_rest+0xa0>
    40103064:	97fbf3ef 	bl	40000020 <p_rom_api_get_boot_src>
    40103068:	1299d3e1 	mov	w1, #0xffff3160            	// #-52896
    4010306c:	0b010001 	add	w1, w0, w1
    40103070:	7100143f 	cmp	w1, #0x5
    40103074:	54000188 	b.hi	401030a4 <load_rest+0x188>
    40103078:	d2800020 	mov	x0, #0x1                   	// #1
    4010307c:	9ac12000 	lsl	x0, x0, x1
    40103080:	d2800521 	mov	x1, #0x29                  	// #41
    40103084:	ea01001f 	tst	x0, x1
    40103088:	540000e0 	b.eq	401030a4 <load_rest+0x188>
    4010308c:	2a1303e1 	mov	w1, w19
    40103090:	d0000040 	adrp	x0, 4010d000 <ddrc_init+0x19c>
    40103094:	9133f400 	add	x0, x0, #0xcfd
    40103098:	97fff884 	bl	401012a8 <tf_printf>
    4010309c:	97fbf3f9 	bl	40000080 <p_rom_api_flash_init>
    401030a0:	17ffffae 	b	40102f58 <load_rest+0x3c>
    401030a4:	2a1303e1 	mov	w1, w19
    401030a8:	d0000040 	adrp	x0, 4010d000 <ddrc_init+0x19c>
    401030ac:	913c3000 	add	x0, x0, #0xf0c
    401030b0:	97fff87e 	bl	401012a8 <tf_printf>
    401030b4:	97fff9b0 	bl	40101774 <panic_handler>
    401030b8:	f9401fa1 	ldr	x1, [x29,#56]
    401030bc:	d0000040 	adrp	x0, 4010d000 <ddrc_init+0x19c>
    401030c0:	913d2400 	add	x0, x0, #0xf49
    401030c4:	97fff879 	bl	401012a8 <tf_printf>
    401030c8:	f9401fa0 	ldr	x0, [x29,#56]
    401030cc:	97fff844 	bl	401011dc <jump_to_loader_2nd>
    401030d0:	17ffffdb 	b	4010303c <load_rest+0x120>

00000000401030d4 <spi_non_data_tran>:
    401030d4:	d2800181 	mov	x1, #0xc                   	// #12
    401030d8:	52910003 	mov	w3, #0x8800                	// #34816
    401030dc:	f2a20001 	movk	x1, #0x1000, lsl #16
    401030e0:	91005021 	add	x1, x1, #0x14
    401030e4:	b81ec03f 	stur	wzr, [x1,#-20]
    401030e8:	3900003f 	strb	wzr, [x1]
    401030ec:	b9400002 	ldr	w2, [x0]
    401030f0:	d2800300 	mov	x0, #0x18                  	// #24
    401030f4:	f2a20000 	movk	x0, #0x1000, lsl #16
    401030f8:	91004000 	add	x0, x0, #0x10
    401030fc:	b81f0002 	stur	w2, [x0,#-16]
    40103100:	d2800202 	mov	x2, #0x10                  	// #16
    40103104:	f2a20002 	movk	x2, #0x1000, lsl #16
    40103108:	3900001f 	strb	wzr, [x0]
    4010310c:	b9000043 	str	w3, [x2]
    40103110:	b9400002 	ldr	w2, [x0]
    40103114:	3607ffe2 	tbz	w2, #0, 40103110 <spi_non_data_tran+0x3c>
    40103118:	3900003f 	strb	wzr, [x1]
    4010311c:	d65f03c0 	ret

0000000040103120 <cv_spinor_init>:
    40103120:	a9bb7bfd 	stp	x29, x30, [sp,#-80]!
    40103124:	910003fd 	mov	x29, sp
    40103128:	a90153f3 	stp	x19, x20, [sp,#16]
    4010312c:	2a0003f4 	mov	w20, w0
    40103130:	d2800180 	mov	x0, #0xc                   	// #12
    40103134:	a9025bf5 	stp	x21, x22, [sp,#32]
    40103138:	f2a20000 	movk	x0, #0x1000, lsl #16
    4010313c:	f9001bf7 	str	x23, [sp,#48]
    40103140:	d2800416 	mov	x22, #0x20                  	// #32
    40103144:	d2800317 	mov	x23, #0x18                  	// #24
    40103148:	aa0003f3 	mov	x19, x0
    4010314c:	52807d35 	mov	w21, #0x3e9                 	// #1001
    40103150:	f2a20016 	movk	x22, #0x1000, lsl #16
    40103154:	f2a20017 	movk	x23, #0x1000, lsl #16
    40103158:	b900001f 	str	wzr, [x0]
    4010315c:	710006b5 	subs	w21, w21, #0x1
    40103160:	54000420 	b.eq	401031e4 <cv_spinor_init+0xc4>
    40103164:	d2800082 	mov	x2, #0x4                   	// #4
    40103168:	52800001 	mov	w1, #0x0                   	// #0
    4010316c:	910103a0 	add	x0, x29, #0x40
    40103170:	97fffbe1 	bl	401020f4 <memset>
    40103174:	d2800082 	mov	x2, #0x4                   	// #4
    40103178:	52800001 	mov	w1, #0x0                   	// #0
    4010317c:	910123a0 	add	x0, x29, #0x48
    40103180:	97fffbdd 	bl	401020f4 <memset>
    40103184:	528000a0 	mov	w0, #0x5                   	// #5
    40103188:	390103a0 	strb	w0, [x29,#64]
    4010318c:	b900027f 	str	wzr, [x19]
    40103190:	d2800281 	mov	x1, #0x14                  	// #20
    40103194:	b90002df 	str	wzr, [x22]
    40103198:	f2a20001 	movk	x1, #0x1000, lsl #16
    4010319c:	52800022 	mov	w2, #0x1                   	// #1
    401031a0:	b94043a0 	ldr	w0, [x29,#64]
    401031a4:	b90002e0 	str	w0, [x23]
    401031a8:	d2800500 	mov	x0, #0x28                  	// #40
    401031ac:	f2a20000 	movk	x0, #0x1000, lsl #16
    401031b0:	b900001f 	str	wzr, [x0]
    401031b4:	b9000022 	str	w2, [x1]
    401031b8:	d2800201 	mov	x1, #0x10                  	// #16
    401031bc:	f2a20001 	movk	x1, #0x1000, lsl #16
    401031c0:	52910022 	mov	w2, #0x8801                	// #34817
    401031c4:	b9000022 	str	w2, [x1]
    401031c8:	b9400001 	ldr	w1, [x0]
    401031cc:	3607ffe1 	tbz	w1, #0, 401031c8 <cv_spinor_init+0xa8>
    401031d0:	b94002e0 	ldr	w0, [x23]
    401031d4:	b9004ba0 	str	w0, [x29,#72]
    401031d8:	390002df 	strb	wzr, [x22]
    401031dc:	394123a0 	ldrb	w0, [x29,#72]
    401031e0:	37000820 	tbnz	w0, #0, 401032e4 <cv_spinor_init+0x1c4>
    401031e4:	52800001 	mov	w1, #0x0                   	// #0
    401031e8:	d2800082 	mov	x2, #0x4                   	// #4
    401031ec:	910123a0 	add	x0, x29, #0x48
    401031f0:	97fffbc1 	bl	401020f4 <memset>
    401031f4:	52800cc0 	mov	w0, #0x66                  	// #102
    401031f8:	390123a0 	strb	w0, [x29,#72]
    401031fc:	910123a0 	add	x0, x29, #0x48
    40103200:	97ffffb5 	bl	401030d4 <spi_non_data_tran>
    40103204:	12800cc0 	mov	w0, #0xffffff99            	// #-103
    40103208:	390123a0 	strb	w0, [x29,#72]
    4010320c:	910123a0 	add	x0, x29, #0x48
    40103210:	97ffffb1 	bl	401030d4 <spi_non_data_tran>
    40103214:	52800c80 	mov	w0, #0x64                  	// #100
    40103218:	97fff764 	bl	40100fa8 <udelay>
    4010321c:	d2840800 	mov	x0, #0x2040                	// #8256
    40103220:	52800121 	mov	w1, #0x9                   	// #9
    40103224:	f2a06000 	movk	x0, #0x300, lsl #16
    40103228:	72a00021 	movk	w1, #0x1, lsl #16
    4010322c:	7100069f 	cmp	w20, #0x1
    40103230:	b9000001 	str	w1, [x0]
    40103234:	11404021 	add	w1, w1, #0x10, lsl #12
    40103238:	b9000801 	str	w1, [x0,#8]
    4010323c:	d2840600 	mov	x0, #0x2030                	// #8240
    40103240:	f2a06000 	movk	x0, #0x300, lsl #16
    40103244:	52820001 	mov	w1, #0x1000                	// #4096
    40103248:	72a80001 	movk	w1, #0x4000, lsl #16
    4010324c:	b900001f 	str	wzr, [x0]
    40103250:	b900041f 	str	wzr, [x0,#4]
    40103254:	d2800480 	mov	x0, #0x24                  	// #36
    40103258:	f2a080c0 	movk	x0, #0x406, lsl #16
    4010325c:	b9000001 	str	w1, [x0]
    40103260:	d2800080 	mov	x0, #0x4                   	// #4
    40103264:	f2a080c0 	movk	x0, #0x406, lsl #16
    40103268:	52812001 	mov	w1, #0x900                 	// #2304
    4010326c:	72a00221 	movk	w1, #0x11, lsl #16
    40103270:	b9000001 	str	w1, [x0]
    40103274:	d2800180 	mov	x0, #0xc                   	// #12
    40103278:	f2a20000 	movk	x0, #0x1000, lsl #16
    4010327c:	540003a1 	b.ne	401032f0 <cv_spinor_init+0x1d0>
    40103280:	d2a20001 	mov	x1, #0x10000000            	// #268435456
    40103284:	b900001f 	str	wzr, [x0]
    40103288:	52980022 	mov	w2, #0xc001                	// #49153
    4010328c:	72a00102 	movk	w2, #0x8, lsl #16
    40103290:	b9000022 	str	w2, [x1]
    40103294:	b9000014 	str	w20, [x0]
    40103298:	d2800100 	mov	x0, #0x8                   	// #8
    4010329c:	f2a20000 	movk	x0, #0x1000, lsl #16
    401032a0:	52886001 	mov	w1, #0x4300                	// #17152
    401032a4:	b9000001 	str	w1, [x0]
    401032a8:	d2800080 	mov	x0, #0x4                   	// #4
    401032ac:	f2a20000 	movk	x0, #0x1000, lsl #16
    401032b0:	52876521 	mov	w1, #0x3b29                	// #15145
    401032b4:	72a000c1 	movk	w1, #0x6, lsl #16
    401032b8:	b900001f 	str	wzr, [x0]
    401032bc:	b9000c01 	str	w1, [x0,#12]
    401032c0:	d2800180 	mov	x0, #0xc                   	// #12
    401032c4:	f9401bf7 	ldr	x23, [sp,#48]
    401032c8:	f2a20000 	movk	x0, #0x1000, lsl #16
    401032cc:	52800021 	mov	w1, #0x1                   	// #1
    401032d0:	a94153f3 	ldp	x19, x20, [sp,#16]
    401032d4:	a9425bf5 	ldp	x21, x22, [sp,#32]
    401032d8:	b9000001 	str	w1, [x0]
    401032dc:	a8c57bfd 	ldp	x29, x30, [sp],#80
    401032e0:	d65f03c0 	ret
    401032e4:	52800020 	mov	w0, #0x1                   	// #1
    401032e8:	97fff73d 	bl	40100fdc <mdelay>
    401032ec:	17ffff9c 	b	4010315c <cv_spinor_init+0x3c>
    401032f0:	7100269f 	cmp	w20, #0x9
    401032f4:	54fffe61 	b.ne	401032c0 <cv_spinor_init+0x1a0>
    401032f8:	d2a20001 	mov	x1, #0x10000000            	// #268435456
    401032fc:	b900001f 	str	wzr, [x0]
    40103300:	52980122 	mov	w2, #0xc009                	// #49161
    40103304:	72a00102 	movk	w2, #0x8, lsl #16
    40103308:	b9000022 	str	w2, [x1]
    4010330c:	52800021 	mov	w1, #0x1                   	// #1
    40103310:	b9000001 	str	w1, [x0]
    40103314:	d2800100 	mov	x0, #0x8                   	// #8
    40103318:	52806001 	mov	w1, #0x300                 	// #768
    4010331c:	f2a20000 	movk	x0, #0x1000, lsl #16
    40103320:	b9000001 	str	w1, [x0]
    40103324:	d2800080 	mov	x0, #0x4                   	// #4
    40103328:	f2a20000 	movk	x0, #0x1000, lsl #16
    4010332c:	52876021 	mov	w1, #0x3b01                	// #15105
    40103330:	b900001f 	str	wzr, [x0]
    40103334:	17ffffe2 	b	401032bc <cv_spinor_init+0x19c>

0000000040103338 <spi_nand_get_feature>:
    40103338:	a9be7bfd 	stp	x29, x30, [sp,#-32]!
    4010333c:	d2800101 	mov	x1, #0x8                   	// #8
    40103340:	f2a080c1 	movk	x1, #0x406, lsl #16
    40103344:	320083e2 	mov	w2, #0x10001               	// #65537
    40103348:	910003fd 	mov	x29, sp
    4010334c:	a90153f3 	stp	x19, x20, [sp,#16]
    40103350:	53185c00 	lsl	w0, w0, #8
    40103354:	b9000022 	str	w2, [x1]
    40103358:	32000c00 	orr	w0, w0, #0xf
    4010335c:	b900043f 	str	wzr, [x1,#4]
    40103360:	52807e62 	mov	w2, #0x3f3                 	// #1011
    40103364:	b9002820 	str	w0, [x1,#40]
    40103368:	d2800201 	mov	x1, #0x10                  	// #16
    4010336c:	f2a080c1 	movk	x1, #0x406, lsl #16
    40103370:	5292d033 	mov	w19, #0x9681                	// #38529
    40103374:	d2800394 	mov	x20, #0x1c                  	// #28
    40103378:	72a01313 	movk	w19, #0x98, lsl #16
    4010337c:	b9400020 	ldr	w0, [x1]
    40103380:	f2a080d4 	movk	x20, #0x406, lsl #16
    40103384:	32000400 	orr	w0, w0, #0x3
    40103388:	b9000020 	str	w0, [x1]
    4010338c:	b9400420 	ldr	w0, [x1,#4]
    40103390:	2a020000 	orr	w0, w0, w2
    40103394:	b9000420 	str	w0, [x1,#4]
    40103398:	b9400820 	ldr	w0, [x1,#8]
    4010339c:	32180c00 	orr	w0, w0, #0xf00
    401033a0:	b9000820 	str	w0, [x1,#8]
    401033a4:	d2a080c1 	mov	x1, #0x4060000             	// #67502080
    401033a8:	b9400020 	ldr	w0, [x1]
    401033ac:	32000000 	orr	w0, w0, #0x1
    401033b0:	b9000020 	str	w0, [x1]
    401033b4:	b9400280 	ldr	w0, [x20]
    401033b8:	37000140 	tbnz	w0, #0, 401033e0 <spi_nand_get_feature+0xa8>
    401033bc:	71000673 	subs	w19, w19, #0x1
    401033c0:	540002c1 	b.ne	40103418 <spi_nand_get_feature+0xe0>
    401033c4:	5292d021 	mov	w1, #0x9681                	// #38529
    401033c8:	d0000042 	adrp	x2, 4010d000 <ddrc_init+0x19c>
    401033cc:	f0000040 	adrp	x0, 4010e000 <__func__.4151+0x10>
    401033d0:	913f0042 	add	x2, x2, #0xfc0
    401033d4:	72a01301 	movk	w1, #0x98, lsl #16
    401033d8:	91042c00 	add	x0, x0, #0x10b
    401033dc:	97fff7b3 	bl	401012a8 <tf_printf>
    401033e0:	d2800c80 	mov	x0, #0x64                  	// #100
    401033e4:	d2800381 	mov	x1, #0x1c                  	// #28
    401033e8:	d2800282 	mov	x2, #0x14                  	// #20
    401033ec:	f2a080c1 	movk	x1, #0x406, lsl #16
    401033f0:	f2a080c2 	movk	x2, #0x406, lsl #16
    401033f4:	f2a080c0 	movk	x0, #0x406, lsl #16
    401033f8:	a94153f3 	ldp	x19, x20, [sp,#16]
    401033fc:	b9400000 	ldr	w0, [x0]
    40103400:	b9400023 	ldr	w3, [x1]
    40103404:	b9400041 	ldr	w1, [x2]
    40103408:	2a030021 	orr	w1, w1, w3
    4010340c:	b9000041 	str	w1, [x2]
    40103410:	a8c27bfd 	ldp	x29, x30, [sp],#32
    40103414:	d65f03c0 	ret
    40103418:	52800020 	mov	w0, #0x1                   	// #1
    4010341c:	97fff6e3 	bl	40100fa8 <udelay>
    40103420:	17ffffe5 	b	401033b4 <spi_nand_get_feature+0x7c>

0000000040103424 <spi_nand_set_feature>:
    40103424:	a9be7bfd 	stp	x29, x30, [sp,#-32]!
    40103428:	12001c02 	and	w2, w0, #0xff
    4010342c:	d2800100 	mov	x0, #0x8                   	// #8
    40103430:	52800043 	mov	w3, #0x2                   	// #2
    40103434:	f2a080c0 	movk	x0, #0x406, lsl #16
    40103438:	910003fd 	mov	x29, sp
    4010343c:	a90153f3 	stp	x19, x20, [sp,#16]
    40103440:	5292d033 	mov	w19, #0x9681                	// #38529
    40103444:	b9000003 	str	w3, [x0]
    40103448:	52a00023 	mov	w3, #0x10000               	// #65536
    4010344c:	b9000403 	str	w3, [x0,#4]
    40103450:	53181c20 	ubfiz	w0, w1, #8, #8
    40103454:	d2800601 	mov	x1, #0x30                  	// #48
    40103458:	2a020000 	orr	w0, w0, w2
    4010345c:	f2a080c1 	movk	x1, #0x406, lsl #16
    40103460:	53185c00 	lsl	w0, w0, #8
    40103464:	32001000 	orr	w0, w0, #0x1f
    40103468:	d2800394 	mov	x20, #0x1c                  	// #28
    4010346c:	b9000020 	str	w0, [x1]
    40103470:	d2a080c1 	mov	x1, #0x4060000             	// #67502080
    40103474:	72a01313 	movk	w19, #0x98, lsl #16
    40103478:	f2a080d4 	movk	x20, #0x406, lsl #16
    4010347c:	b9400020 	ldr	w0, [x1]
    40103480:	32000000 	orr	w0, w0, #0x1
    40103484:	b9000020 	str	w0, [x1]
    40103488:	b9400280 	ldr	w0, [x20]
    4010348c:	37000140 	tbnz	w0, #0, 401034b4 <spi_nand_set_feature+0x90>
    40103490:	71000673 	subs	w19, w19, #0x1
    40103494:	54000221 	b.ne	401034d8 <spi_nand_set_feature+0xb4>
    40103498:	5292d021 	mov	w1, #0x9681                	// #38529
    4010349c:	d0000042 	adrp	x2, 4010d000 <ddrc_init+0x19c>
    401034a0:	f0000040 	adrp	x0, 4010e000 <__func__.4151+0x10>
    401034a4:	913ea042 	add	x2, x2, #0xfa8
    401034a8:	72a01301 	movk	w1, #0x98, lsl #16
    401034ac:	91042c00 	add	x0, x0, #0x10b
    401034b0:	97fff77e 	bl	401012a8 <tf_printf>
    401034b4:	d2800281 	mov	x1, #0x14                  	// #20
    401034b8:	f2a080c1 	movk	x1, #0x406, lsl #16
    401034bc:	a94153f3 	ldp	x19, x20, [sp,#16]
    401034c0:	b9400020 	ldr	w0, [x1]
    401034c4:	32000000 	orr	w0, w0, #0x1
    401034c8:	b9000020 	str	w0, [x1]
    401034cc:	52800000 	mov	w0, #0x0                   	// #0
    401034d0:	a8c27bfd 	ldp	x29, x30, [sp],#32
    401034d4:	d65f03c0 	ret
    401034d8:	52800020 	mov	w0, #0x1                   	// #1
    401034dc:	97fff6b3 	bl	40100fa8 <udelay>
    401034e0:	17ffffea 	b	40103488 <spi_nand_set_feature+0x64>

00000000401034e4 <spi_nand_rw_dma_setup>:
    401034e4:	d2800203 	mov	x3, #0x10                  	// #16
    401034e8:	52800064 	mov	w4, #0x3                   	// #3
    401034ec:	f2a08663 	movk	x3, #0x433, lsl #16
    401034f0:	53027c21 	lsr	w1, w1, #2
    401034f4:	51000421 	sub	w1, w1, #0x1
    401034f8:	b9000064 	str	w4, [x3]
    401034fc:	5281e004 	mov	w4, #0xf00                 	// #3840
    40103500:	b9000864 	str	w4, [x3,#8]
    40103504:	b9010061 	str	w1, [x3,#256]
    40103508:	d2802381 	mov	x1, #0x11c                 	// #284
    4010350c:	f2a08661 	movk	x1, #0x433, lsl #16
    40103510:	5280f243 	mov	w3, #0x792                 	// #1938
    40103514:	72a001e3 	movk	w3, #0xf, lsl #16
    40103518:	b9000023 	str	w3, [x1]
    4010351c:	929fffe1 	mov	x1, #0xffffffffffff0000    	// #-65536
    40103520:	f2b7fe01 	movk	x1, #0xbff0, lsl #16
    40103524:	8b010001 	add	x1, x0, x1
    40103528:	b24047e3 	mov	x3, #0x3ffff               	// #262143
    4010352c:	eb03003f 	cmp	x1, x3
    40103530:	54000088 	b.hi	40103540 <spi_nand_rw_dma_setup+0x5c>
    40103534:	929fffe1 	mov	x1, #0xffffffffffff0000    	// #-65536
    40103538:	f2b97e01 	movk	x1, #0xcbf0, lsl #16
    4010353c:	8b010000 	add	x0, x0, x1
    40103540:	d2802004 	mov	x4, #0x100                 	// #256
    40103544:	d2802103 	mov	x3, #0x108                 	// #264
    40103548:	d2802301 	mov	x1, #0x118                 	// #280
    4010354c:	f2a08664 	movk	x4, #0x433, lsl #16
    40103550:	f2a08663 	movk	x3, #0x433, lsl #16
    40103554:	f2a08661 	movk	x1, #0x433, lsl #16
    40103558:	34000362 	cbz	w2, 401035c4 <spi_nand_rw_dma_setup+0xe0>
    4010355c:	f9000080 	str	x0, [x4]
    40103560:	d2810000 	mov	x0, #0x800                 	// #2048
    40103564:	f2a080c0 	movk	x0, #0x406, lsl #16
    40103568:	f9000060 	str	x0, [x3]
    4010356c:	528a8820 	mov	w0, #0x5441                	// #21569
    40103570:	72a00080 	movk	w0, #0x4, lsl #16
    40103574:	b9000020 	str	w0, [x1]
    40103578:	52800021 	mov	w1, #0x1                   	// #1
    4010357c:	d2802480 	mov	x0, #0x124                 	// #292
    40103580:	f2a08660 	movk	x0, #0x433, lsl #16
    40103584:	b9000001 	str	w1, [x0]
    40103588:	d2802a80 	mov	x0, #0x154                 	// #340
    4010358c:	f2a06000 	movk	x0, #0x300, lsl #16
    40103590:	528004c1 	mov	w1, #0x26                  	// #38
    40103594:	b9000001 	str	w1, [x0]
    40103598:	b9400001 	ldr	w1, [x0]
    4010359c:	32010021 	orr	w1, w1, #0x80000000
    401035a0:	b9000001 	str	w1, [x0]
    401035a4:	d2802400 	mov	x0, #0x120                 	// #288
    401035a8:	5281e1e1 	mov	w1, #0xf0f                 	// #3855
    401035ac:	f2a08660 	movk	x0, #0x433, lsl #16
    401035b0:	b900001f 	str	wzr, [x0]
    401035b4:	d2800300 	mov	x0, #0x18                  	// #24
    401035b8:	f2a08660 	movk	x0, #0x433, lsl #16
    401035bc:	b9000001 	str	w1, [x0]
    401035c0:	d65f03c0 	ret
    401035c4:	d2818002 	mov	x2, #0xc00                 	// #3072
    401035c8:	f2a080c2 	movk	x2, #0x406, lsl #16
    401035cc:	f9000082 	str	x2, [x4]
    401035d0:	f9000060 	str	x0, [x3]
    401035d4:	528c4280 	mov	w0, #0x6214                	// #25108
    401035d8:	72a00080 	movk	w0, #0x4, lsl #16
    401035dc:	b9000020 	str	w0, [x1]
    401035e0:	52800041 	mov	w1, #0x2                   	// #2
    401035e4:	17ffffe6 	b	4010357c <spi_nand_rw_dma_setup+0x98>

00000000401035e8 <spi_nand_parsing_ecc_info>:
    401035e8:	a9bd7bfd 	stp	x29, x30, [sp,#-48]!
    401035ec:	910003fd 	mov	x29, sp
    401035f0:	a90153f3 	stp	x19, x20, [sp,#16]
    401035f4:	d0000073 	adrp	x19, 40111000 <__BSS_START__>
    401035f8:	91038274 	add	x20, x19, #0xe0
    401035fc:	a9025bf5 	stp	x21, x22, [sp,#32]
    40103600:	2a0003f5 	mov	w21, w0
    40103604:	39409a80 	ldrb	w0, [x20,#38]
    40103608:	97ffff4c 	bl	40103338 <spi_nand_get_feature>
    4010360c:	12001c03 	and	w3, w0, #0xff
    40103610:	39409e80 	ldrb	w0, [x20,#39]
    40103614:	0a000063 	and	w3, w3, w0
    40103618:	3940a280 	ldrb	w0, [x20,#40]
    4010361c:	1ac02463 	lsr	w3, w3, w0
    40103620:	72001c76 	ands	w22, w3, #0xff
    40103624:	54000140 	b.eq	4010364c <spi_nand_parsing_ecc_info+0x64>
    40103628:	b9401680 	ldr	w0, [x20,#20]
    4010362c:	2a1603e3 	mov	w3, w22
    40103630:	39407281 	ldrb	w1, [x20,#28]
    40103634:	1ac00aa2 	udiv	w2, w21, w0
    40103638:	1ac126a1 	lsr	w1, w21, w1
    4010363c:	1b00d442 	msub	w2, w2, w0, w21
    40103640:	f0000040 	adrp	x0, 4010e000 <__func__.4151+0x10>
    40103644:	9104f000 	add	x0, x0, #0x13c
    40103648:	97fff718 	bl	401012a8 <tf_printf>
    4010364c:	91038273 	add	x19, x19, #0xe0
    40103650:	3940a660 	ldrb	w0, [x19,#41]
    40103654:	6b16001f 	cmp	w0, w22
    40103658:	54000121 	b.ne	4010367c <spi_nand_parsing_ecc_info+0x94>
    4010365c:	f0000040 	adrp	x0, 4010e000 <__func__.4151+0x10>
    40103660:	91059000 	add	x0, x0, #0x164
    40103664:	97fff711 	bl	401012a8 <tf_printf>
    40103668:	52800040 	mov	w0, #0x2                   	// #2
    4010366c:	a94153f3 	ldp	x19, x20, [sp,#16]
    40103670:	a9425bf5 	ldp	x21, x22, [sp,#32]
    40103674:	a8c37bfd 	ldp	x29, x30, [sp],#48
    40103678:	d65f03c0 	ret
    4010367c:	52800000 	mov	w0, #0x0                   	// #0
    40103680:	17fffffb 	b	4010366c <spi_nand_parsing_ecc_info+0x84>

0000000040103684 <cv_spi_nand_read_page_by_row_addr>:
    40103684:	a9bb7bfd 	stp	x29, x30, [sp,#-80]!
    40103688:	910003fd 	mov	x29, sp
    4010368c:	a9025bf5 	stp	x21, x22, [sp,#32]
    40103690:	f0000056 	adrp	x22, 4010e000 <__func__.4151+0x10>
    40103694:	a90153f3 	stp	x19, x20, [sp,#16]
    40103698:	2a0003f5 	mov	w21, w0
    4010369c:	a90363f7 	stp	x23, x24, [sp,#48]
    401036a0:	2a0203f4 	mov	w20, w2
    401036a4:	397382c0 	ldrb	w0, [x22,#3296]
    401036a8:	aa0103f7 	mov	x23, x1
    401036ac:	f90023f9 	str	x25, [sp,#64]
    401036b0:	7100041f 	cmp	w0, #0x1
    401036b4:	54000180 	b.eq	401036e4 <cv_spi_nand_read_page_by_row_addr+0x60>
    401036b8:	d0000073 	adrp	x19, 40111000 <__BSS_START__>
    401036bc:	91038273 	add	x19, x19, #0xe0
    401036c0:	39409260 	ldrb	w0, [x19,#36]
    401036c4:	97ffff1d 	bl	40103338 <spi_nand_get_feature>
    401036c8:	12001c00 	and	w0, w0, #0xff
    401036cc:	39409661 	ldrb	w1, [x19,#37]
    401036d0:	2a010001 	orr	w1, w0, w1
    401036d4:	39409260 	ldrb	w0, [x19,#36]
    401036d8:	97ffff53 	bl	40103424 <spi_nand_set_feature>
    401036dc:	52800020 	mov	w0, #0x1                   	// #1
    401036e0:	393382c0 	strb	w0, [x22,#3296]
    401036e4:	d2800100 	mov	x0, #0x8                   	// #8
    401036e8:	52800061 	mov	w1, #0x3                   	// #3
    401036ec:	f2a080c0 	movk	x0, #0x406, lsl #16
    401036f0:	5292d033 	mov	w19, #0x9681                	// #38529
    401036f4:	d2800396 	mov	x22, #0x1c                  	// #28
    401036f8:	72a01313 	movk	w19, #0x98, lsl #16
    401036fc:	b9000001 	str	w1, [x0]
    40103700:	53101ea1 	ubfiz	w1, w21, #16, #8
    40103704:	b900041f 	str	wzr, [x0,#4]
    40103708:	d3505ea0 	ubfx	x0, x21, #16, #8
    4010370c:	2a010000 	orr	w0, w0, w1
    40103710:	12181ea1 	and	w1, w21, #0xff00
    40103714:	2a010000 	orr	w0, w0, w1
    40103718:	52800261 	mov	w1, #0x13                  	// #19
    4010371c:	2a002020 	orr	w0, w1, w0, lsl #8
    40103720:	d2800601 	mov	x1, #0x30                  	// #48
    40103724:	f2a080c1 	movk	x1, #0x406, lsl #16
    40103728:	f2a080d6 	movk	x22, #0x406, lsl #16
    4010372c:	b9000020 	str	w0, [x1]
    40103730:	d2a080c1 	mov	x1, #0x4060000             	// #67502080
    40103734:	b9400020 	ldr	w0, [x1]
    40103738:	32000000 	orr	w0, w0, #0x1
    4010373c:	b9000020 	str	w0, [x1]
    40103740:	b94002c0 	ldr	w0, [x22]
    40103744:	37000140 	tbnz	w0, #0, 4010376c <cv_spi_nand_read_page_by_row_addr+0xe8>
    40103748:	71000673 	subs	w19, w19, #0x1
    4010374c:	54000a41 	b.ne	40103894 <cv_spi_nand_read_page_by_row_addr+0x210>
    40103750:	5292d021 	mov	w1, #0x9681                	// #38529
    40103754:	d0000042 	adrp	x2, 4010d000 <ddrc_init+0x19c>
    40103758:	f0000040 	adrp	x0, 4010e000 <__func__.4151+0x10>
    4010375c:	913fc042 	add	x2, x2, #0xff0
    40103760:	72a01301 	movk	w1, #0x98, lsl #16
    40103764:	91042c00 	add	x0, x0, #0x10b
    40103768:	97fff6d0 	bl	401012a8 <tf_printf>
    4010376c:	d2800281 	mov	x1, #0x14                  	// #20
    40103770:	529c2033 	mov	w19, #0xe101                	// #57601
    40103774:	f2a080c1 	movk	x1, #0x406, lsl #16
    40103778:	d0000076 	adrp	x22, 40111000 <__BSS_START__>
    4010377c:	910382d9 	add	x25, x22, #0xe0
    40103780:	72a0beb3 	movk	w19, #0x5f5, lsl #16
    40103784:	b9400020 	ldr	w0, [x1]
    40103788:	52801ff8 	mov	w24, #0xff                  	// #255
    4010378c:	32000000 	orr	w0, w0, #0x1
    40103790:	b9000020 	str	w0, [x1]
    40103794:	36000158 	tbz	w24, #0, 401037bc <cv_spi_nand_read_page_by_row_addr+0x138>
    40103798:	71000673 	subs	w19, w19, #0x1
    4010379c:	54000821 	b.ne	401038a0 <cv_spi_nand_read_page_by_row_addr+0x21c>
    401037a0:	529c2021 	mov	w1, #0xe101                	// #57601
    401037a4:	d0000042 	adrp	x2, 4010d000 <ddrc_init+0x19c>
    401037a8:	f0000040 	adrp	x0, 4010e000 <__func__.4151+0x10>
    401037ac:	913f6042 	add	x2, x2, #0xfd8
    401037b0:	72a0bea1 	movk	w1, #0x5f5, lsl #16
    401037b4:	9100a400 	add	x0, x0, #0x29
    401037b8:	97fff6bc 	bl	401012a8 <tf_printf>
    401037bc:	910382c0 	add	x0, x22, #0xe0
    401037c0:	b9402000 	ldr	w0, [x0,#32]
    401037c4:	360007a0 	tbz	w0, #0, 401038b8 <cv_spi_nand_read_page_by_row_addr+0x234>
    401037c8:	d3461aa0 	ubfx	x0, x21, #6, #1
    401037cc:	53144c13 	lsl	w19, w0, #12
    401037d0:	2a1403e1 	mov	w1, w20
    401037d4:	aa1703e0 	mov	x0, x23
    401037d8:	940027f6 	bl	4010d7b0 <flush_dcache_range>
    401037dc:	910382d6 	add	x22, x22, #0xe0
    401037e0:	2a1403e1 	mov	w1, w20
    401037e4:	aa1703e0 	mov	x0, x23
    401037e8:	52800002 	mov	w2, #0x0                   	// #0
    401037ec:	97ffff3e 	bl	401034e4 <spi_nand_rw_dma_setup>
    401037f0:	d2800100 	mov	x0, #0x8                   	// #8
    401037f4:	53103e94 	lsl	w20, w20, #16
    401037f8:	f2a080c0 	movk	x0, #0x406, lsl #16
    401037fc:	32000694 	orr	w20, w20, #0x3
    40103800:	d2800181 	mov	x1, #0xc                   	// #12
    40103804:	b9000014 	str	w20, [x0]
    40103808:	f2a080c1 	movk	x1, #0x406, lsl #16
    4010380c:	12181e60 	and	w0, w19, #0xff00
    40103810:	b94022c3 	ldr	w3, [x22,#32]
    40103814:	36180563 	tbz	w3, #3, 401038c0 <cv_spi_nand_read_page_by_row_addr+0x23c>
    40103818:	52800062 	mov	w2, #0x3                   	// #3
    4010381c:	72a000c2 	movk	w2, #0x6, lsl #16
    40103820:	b9000022 	str	w2, [x1]
    40103824:	52800d61 	mov	w1, #0x6b                  	// #107
    40103828:	2a010000 	orr	w0, w0, w1
    4010382c:	d2800601 	mov	x1, #0x30                  	// #48
    40103830:	f2a080c1 	movk	x1, #0x406, lsl #16
    40103834:	b9000020 	str	w0, [x1]
    40103838:	d2a080c1 	mov	x1, #0x4060000             	// #67502080
    4010383c:	b9400020 	ldr	w0, [x1]
    40103840:	32000000 	orr	w0, w0, #0x1
    40103844:	b9000020 	str	w0, [x1]
    40103848:	d2800380 	mov	x0, #0x1c                  	// #28
    4010384c:	52802021 	mov	w1, #0x101                 	// #257
    40103850:	f2a080c0 	movk	x0, #0x406, lsl #16
    40103854:	b9400002 	ldr	w2, [x0]
    40103858:	6a01005f 	tst	w2, w1
    4010385c:	54ffffc0 	b.eq	40103854 <cv_spi_nand_read_page_by_row_addr+0x1d0>
    40103860:	d2800281 	mov	x1, #0x14                  	// #20
    40103864:	b9400000 	ldr	w0, [x0]
    40103868:	f2a080c1 	movk	x1, #0x406, lsl #16
    4010386c:	f94023f9 	ldr	x25, [sp,#64]
    40103870:	a94153f3 	ldp	x19, x20, [sp,#16]
    40103874:	b9400022 	ldr	w2, [x1]
    40103878:	a94363f7 	ldp	x23, x24, [sp,#48]
    4010387c:	2a020000 	orr	w0, w0, w2
    40103880:	b9000020 	str	w0, [x1]
    40103884:	2a1503e0 	mov	w0, w21
    40103888:	a9425bf5 	ldp	x21, x22, [sp,#32]
    4010388c:	a8c57bfd 	ldp	x29, x30, [sp],#80
    40103890:	17ffff56 	b	401035e8 <spi_nand_parsing_ecc_info>
    40103894:	52800020 	mov	w0, #0x1                   	// #1
    40103898:	97fff5c4 	bl	40100fa8 <udelay>
    4010389c:	17ffffa9 	b	40103740 <cv_spi_nand_read_page_by_row_addr+0xbc>
    401038a0:	39409b20 	ldrb	w0, [x25,#38]
    401038a4:	97fffea5 	bl	40103338 <spi_nand_get_feature>
    401038a8:	12001c18 	and	w24, w0, #0xff
    401038ac:	52800020 	mov	w0, #0x1                   	// #1
    401038b0:	97fff5be 	bl	40100fa8 <udelay>
    401038b4:	17ffffb8 	b	40103794 <cv_spi_nand_read_page_by_row_addr+0x110>
    401038b8:	52800013 	mov	w19, #0x0                   	// #0
    401038bc:	17ffffc5 	b	401037d0 <cv_spi_nand_read_page_by_row_addr+0x14c>
    401038c0:	d2800602 	mov	x2, #0x30                  	// #48
    401038c4:	f2a080c2 	movk	x2, #0x406, lsl #16
    401038c8:	36100103 	tbz	w3, #2, 401038e8 <cv_spi_nand_read_page_by_row_addr+0x264>
    401038cc:	52800043 	mov	w3, #0x2                   	// #2
    401038d0:	72a000c3 	movk	w3, #0x6, lsl #16
    401038d4:	b9000023 	str	w3, [x1]
    401038d8:	52800761 	mov	w1, #0x3b                  	// #59
    401038dc:	2a010000 	orr	w0, w0, w1
    401038e0:	b9000040 	str	w0, [x2]
    401038e4:	17ffffd5 	b	40103838 <cv_spi_nand_read_page_by_row_addr+0x1b4>
    401038e8:	52a000c3 	mov	w3, #0x60000               	// #393216
    401038ec:	32000400 	orr	w0, w0, #0x3
    401038f0:	b9000023 	str	w3, [x1]
    401038f4:	17fffffb 	b	401038e0 <cv_spi_nand_read_page_by_row_addr+0x25c>

00000000401038f8 <get_nand_info>:
    401038f8:	d2820410 	mov	x16, #0x1020                	// #4128
    401038fc:	cb3063ff 	sub	sp, sp, x16
    40103900:	d2820002 	mov	x2, #0x1000                	// #4096
    40103904:	52800001 	mov	w1, #0x0                   	// #0
    40103908:	a9007bfd 	stp	x29, x30, [sp]
    4010390c:	910003fd 	mov	x29, sp
    40103910:	910083a0 	add	x0, x29, #0x20
    40103914:	a90153f3 	stp	x19, x20, [sp,#16]
    40103918:	97fff9f7 	bl	401020f4 <memset>
    4010391c:	d0000073 	adrp	x19, 40111000 <__BSS_START__>
    40103920:	91038260 	add	x0, x19, #0xe0
    40103924:	52a00043 	mov	w3, #0x20000               	// #131072
    40103928:	52800801 	mov	w1, #0x40                  	// #64
    4010392c:	52810002 	mov	w2, #0x800                 	// #2048
    40103930:	29018c01 	stp	w1, w3, [x0,#12]
    40103934:	128009e3 	mov	w3, #0xffffffb0            	// #-80
    40103938:	39009003 	strb	w3, [x0,#36]
    4010393c:	52800203 	mov	w3, #0x10                  	// #16
    40103940:	39009403 	strb	w3, [x0,#37]
    40103944:	128007e3 	mov	w3, #0xffffffc0            	// #-64
    40103948:	b9001401 	str	w1, [x0,#20]
    4010394c:	52808001 	mov	w1, #0x400                 	// #1024
    40103950:	39009803 	strb	w3, [x0,#38]
    40103954:	52800603 	mov	w3, #0x30                  	// #48
    40103958:	b9001801 	str	w1, [x0,#24]
    4010395c:	528000c1 	mov	w1, #0x6                   	// #6
    40103960:	39009c03 	strb	w3, [x0,#39]
    40103964:	52800083 	mov	w3, #0x4                   	// #4
    40103968:	39007001 	strb	w1, [x0,#28]
    4010396c:	52800041 	mov	w1, #0x2                   	// #2
    40103970:	3900a003 	strb	w3, [x0,#40]
    40103974:	52800023 	mov	w3, #0x1                   	// #1
    40103978:	39007401 	strb	w1, [x0,#29]
    4010397c:	3900a401 	strb	w1, [x0,#41]
    40103980:	3900c001 	strb	w1, [x0,#48]
    40103984:	3900c401 	strb	w1, [x0,#49]
    40103988:	52802001 	mov	w1, #0x100                 	// #256
    4010398c:	7900641f 	strh	wzr, [x0,#50]
    40103990:	b9003401 	str	w1, [x0,#52]
    40103994:	910083a1 	add	x1, x29, #0x20
    40103998:	3900e01f 	strb	wzr, [x0,#56]
    4010399c:	2900881f 	stp	wzr, w2, [x0,#4]
    401039a0:	b900201f 	str	wzr, [x0,#32]
    401039a4:	b9002c03 	str	w3, [x0,#44]
    401039a8:	52800000 	mov	w0, #0x0                   	// #0
    401039ac:	97ffff36 	bl	40103684 <cv_spi_nand_read_page_by_row_addr>
    401039b0:	34000080 	cbz	w0, 401039c0 <get_nand_info+0xc8>
    401039b4:	f0000040 	adrp	x0, 4010e000 <__func__.4151+0x10>
    401039b8:	9101b800 	add	x0, x0, #0x6e
    401039bc:	97fff63b 	bl	401012a8 <tf_printf>
    401039c0:	91038274 	add	x20, x19, #0xe0
    401039c4:	d2801002 	mov	x2, #0x80                  	// #128
    401039c8:	910103a1 	add	x1, x29, #0x40
    401039cc:	aa1403e0 	mov	x0, x20
    401039d0:	97fff9e8 	bl	40102170 <memcpy>
    401039d4:	b9402280 	ldr	w0, [x20,#32]
    401039d8:	36180360 	tbz	w0, #3, 40103a44 <get_nand_info+0x14c>
    401039dc:	52800141 	mov	w1, #0xa                   	// #10
    401039e0:	6a01001f 	tst	w0, w1
    401039e4:	540000e0 	b.eq	40103a00 <get_nand_info+0x108>
    401039e8:	52801600 	mov	w0, #0xb0                  	// #176
    401039ec:	97fffe53 	bl	40103338 <spi_nand_get_feature>
    401039f0:	12001c00 	and	w0, w0, #0xff
    401039f4:	32000001 	orr	w1, w0, #0x1
    401039f8:	128009e0 	mov	w0, #0xffffffb0            	// #-80
    401039fc:	97fffe8a 	bl	40103424 <spi_nand_set_feature>
    40103a00:	52810002 	mov	w2, #0x800                 	// #2048
    40103a04:	912083a1 	add	x1, x29, #0x820
    40103a08:	52800000 	mov	w0, #0x0                   	// #0
    40103a0c:	97ffff1e 	bl	40103684 <cv_spi_nand_read_page_by_row_addr>
    40103a10:	34000080 	cbz	w0, 40103a20 <get_nand_info+0x128>
    40103a14:	f0000040 	adrp	x0, 4010e000 <__func__.4151+0x10>
    40103a18:	9101b800 	add	x0, x0, #0x6e
    40103a1c:	97fff623 	bl	401012a8 <tf_printf>
    40103a20:	910083a0 	add	x0, x29, #0x20
    40103a24:	d2810002 	mov	x2, #0x800                 	// #2048
    40103a28:	8b020001 	add	x1, x0, x2
    40103a2c:	97fff9a5 	bl	401020c0 <memcmp>
    40103a30:	340000a0 	cbz	w0, 40103a44 <get_nand_info+0x14c>
    40103a34:	91038261 	add	x1, x19, #0xe0
    40103a38:	b9402020 	ldr	w0, [x1,#32]
    40103a3c:	121c7400 	and	w0, w0, #0xfffffff3
    40103a40:	b9002020 	str	w0, [x1,#32]
    40103a44:	91038274 	add	x20, x19, #0xe0
    40103a48:	b940e261 	ldr	w1, [x19,#224]
    40103a4c:	f0000040 	adrp	x0, 4010e000 <__func__.4151+0x10>
    40103a50:	91023000 	add	x0, x0, #0x8c
    40103a54:	b9400682 	ldr	w2, [x20,#4]
    40103a58:	97fff614 	bl	401012a8 <tf_printf>
    40103a5c:	39407684 	ldrb	w4, [x20,#29]
    40103a60:	f0000040 	adrp	x0, 4010e000 <__func__.4151+0x10>
    40103a64:	b9400a81 	ldr	w1, [x20,#8]
    40103a68:	9102e400 	add	x0, x0, #0xb9
    40103a6c:	29420e82 	ldp	w2, w3, [x20,#16]
    40103a70:	97fff60e 	bl	401012a8 <tf_printf>
    40103a74:	a9407bfd 	ldp	x29, x30, [sp]
    40103a78:	52800000 	mov	w0, #0x0                   	// #0
    40103a7c:	a94153f3 	ldp	x19, x20, [sp,#16]
    40103a80:	d2820410 	mov	x16, #0x1020                	// #4128
    40103a84:	8b3063ff 	add	sp, sp, x16
    40103a88:	d65f03c0 	ret

0000000040103a8c <cv_spi_nand_read_data>:
    40103a8c:	a9bb7bfd 	stp	x29, x30, [sp,#-80]!
    40103a90:	910003fd 	mov	x29, sp
    40103a94:	a90153f3 	stp	x19, x20, [sp,#16]
    40103a98:	d0000073 	adrp	x19, 40111000 <__BSS_START__>
    40103a9c:	a90363f7 	stp	x23, x24, [sp,#48]
    40103aa0:	aa0003f7 	mov	x23, x0
    40103aa4:	91038260 	add	x0, x19, #0xe0
    40103aa8:	a9025bf5 	stp	x21, x22, [sp,#32]
    40103aac:	2a0203f4 	mov	w20, w2
    40103ab0:	b9400800 	ldr	w0, [x0,#8]
    40103ab4:	f90023f9 	str	x25, [sp,#64]
    40103ab8:	1ac00839 	udiv	w25, w1, w0
    40103abc:	51000401 	sub	w1, w0, #0x1
    40103ac0:	6a02003f 	tst	w1, w2
    40103ac4:	54000080 	b.eq	40103ad4 <cv_spi_nand_read_data+0x48>
    40103ac8:	0b020034 	add	w20, w1, w2
    40103acc:	4b0003e0 	neg	w0, w0
    40103ad0:	0a140014 	and	w20, w0, w20
    40103ad4:	91038273 	add	x19, x19, #0xe0
    40103ad8:	52800015 	mov	w21, #0x0                   	// #0
    40103adc:	b9400a62 	ldr	w2, [x19,#8]
    40103ae0:	0b1902b8 	add	w24, w21, w25
    40103ae4:	1ac20a80 	udiv	w0, w20, w2
    40103ae8:	6b0002bf 	cmp	w21, w0
    40103aec:	54000063 	b.cc	40103af8 <cv_spi_nand_read_data+0x6c>
    40103af0:	52800016 	mov	w22, #0x0                   	// #0
    40103af4:	1400000a 	b	40103b1c <cv_spi_nand_read_data+0x90>
    40103af8:	aa1703e1 	mov	x1, x23
    40103afc:	2a1803e0 	mov	w0, w24
    40103b00:	97fffee1 	bl	40103684 <cv_spi_nand_read_page_by_row_addr>
    40103b04:	2a0003f6 	mov	w22, w0
    40103b08:	34000180 	cbz	w0, 40103b38 <cv_spi_nand_read_data+0xac>
    40103b0c:	f0000040 	adrp	x0, 4010e000 <__func__.4151+0x10>
    40103b10:	2a1803e1 	mov	w1, w24
    40103b14:	91003c00 	add	x0, x0, #0xf
    40103b18:	97fff5e4 	bl	401012a8 <tf_printf>
    40103b1c:	2a1603e0 	mov	w0, w22
    40103b20:	f94023f9 	ldr	x25, [sp,#64]
    40103b24:	a94153f3 	ldp	x19, x20, [sp,#16]
    40103b28:	a9425bf5 	ldp	x21, x22, [sp,#32]
    40103b2c:	a94363f7 	ldp	x23, x24, [sp,#48]
    40103b30:	a8c57bfd 	ldp	x29, x30, [sp],#80
    40103b34:	d65f03c0 	ret
    40103b38:	b9400a60 	ldr	w0, [x19,#8]
    40103b3c:	110006b5 	add	w21, w21, #0x1
    40103b40:	8b0002f7 	add	x23, x23, x0
    40103b44:	17ffffe6 	b	40103adc <cv_spi_nand_read_data+0x50>

0000000040103b48 <emmc_device_state>:
    40103b48:	a9bb7bfd 	stp	x29, x30, [sp,#-80]!
    40103b4c:	52800000 	mov	w0, #0x0                   	// #0
    40103b50:	910003fd 	mov	x29, sp
    40103b54:	a90153f3 	stp	x19, x20, [sp,#16]
    40103b58:	528001b4 	mov	w20, #0xd                   	// #13
    40103b5c:	a9025bf5 	stp	x21, x22, [sp,#32]
    40103b60:	97fff522 	bl	40100fe8 <get_timer>
    40103b64:	2a0003f3 	mov	w19, w0
    40103b68:	52a000d5 	mov	w21, #0x60000               	// #393216
    40103b6c:	52800036 	mov	w22, #0x1                   	// #1
    40103b70:	d2800381 	mov	x1, #0x1c                  	// #28
    40103b74:	9100c3a0 	add	x0, x29, #0x30
    40103b78:	9400272a 	bl	4010d820 <zeromem>
    40103b7c:	290657b4 	stp	w20, w21, [x29,#48]
    40103b80:	d0000060 	adrp	x0, 40111000 <__BSS_START__>
    40103b84:	b9003bb6 	str	w22, [x29,#56]
    40103b88:	f940c000 	ldr	x0, [x0,#384]
    40103b8c:	f9400801 	ldr	x1, [x0,#16]
    40103b90:	9100c3a0 	add	x0, x29, #0x30
    40103b94:	d63f0020 	blr	x1
    40103b98:	37f80120 	tbnz	w0, #31, 40103bbc <emmc_device_state+0x74>
    40103b9c:	b9403fa2 	ldr	w2, [x29,#60]
    40103ba0:	36380162 	tbz	w2, #7, 40103bcc <emmc_device_state+0x84>
    40103ba4:	f0000041 	adrp	x1, 4010e000 <__func__.4151+0x10>
    40103ba8:	f0000040 	adrp	x0, 4010e000 <__func__.4151+0x10>
    40103bac:	91060021 	add	x1, x1, #0x180
    40103bb0:	91064800 	add	x0, x0, #0x192
    40103bb4:	97fff5bd 	bl	401012a8 <tf_printf>
    40103bb8:	12800080 	mov	w0, #0xfffffffb            	// #-5
    40103bbc:	a94153f3 	ldp	x19, x20, [sp,#16]
    40103bc0:	a9425bf5 	ldp	x21, x22, [sp,#32]
    40103bc4:	a8c57bfd 	ldp	x29, x30, [sp],#80
    40103bc8:	d65f03c0 	ret
    40103bcc:	2a1303e0 	mov	w0, w19
    40103bd0:	97fff506 	bl	40100fe8 <get_timer>
    40103bd4:	52827101 	mov	w1, #0x1388                	// #5000
    40103bd8:	6b01001f 	cmp	w0, w1
    40103bdc:	540000e9 	b.ls	40103bf8 <emmc_device_state+0xb0>
    40103be0:	f0000041 	adrp	x1, 4010e000 <__func__.4151+0x10>
    40103be4:	f0000040 	adrp	x0, 4010e000 <__func__.4151+0x10>
    40103be8:	91060021 	add	x1, x1, #0x180
    40103bec:	9106dc00 	add	x0, x0, #0x1b7
    40103bf0:	b9403fa2 	ldr	w2, [x29,#60]
    40103bf4:	17fffff0 	b	40103bb4 <emmc_device_state+0x6c>
    40103bf8:	b9403fa0 	ldr	w0, [x29,#60]
    40103bfc:	3647fba0 	tbz	w0, #8, 40103b70 <emmc_device_state+0x28>
    40103c00:	d3493000 	ubfx	x0, x0, #9, #4
    40103c04:	17ffffee 	b	40103bbc <emmc_device_state+0x74>

0000000040103c08 <emmc_set_ext_csd>:
    40103c08:	a9bc7bfd 	stp	x29, x30, [sp,#-64]!
    40103c0c:	910003fd 	mov	x29, sp
    40103c10:	a90153f3 	stp	x19, x20, [sp,#16]
    40103c14:	2a0003f4 	mov	w20, w0
    40103c18:	2a0103f3 	mov	w19, w1
    40103c1c:	910083a0 	add	x0, x29, #0x20
    40103c20:	d2800381 	mov	x1, #0x1c                  	// #28
    40103c24:	940026ff 	bl	4010d820 <zeromem>
    40103c28:	528000c0 	mov	w0, #0x6                   	// #6
    40103c2c:	b90023a0 	str	w0, [x29,#32]
    40103c30:	52800020 	mov	w0, #0x1                   	// #1
    40103c34:	53181e73 	ubfiz	w19, w19, #8, #8
    40103c38:	72a06000 	movk	w0, #0x300, lsl #16
    40103c3c:	2a000273 	orr	w19, w19, w0
    40103c40:	d0000060 	adrp	x0, 40111000 <__BSS_START__>
    40103c44:	53101e94 	ubfiz	w20, w20, #16, #8
    40103c48:	2a140273 	orr	w19, w19, w20
    40103c4c:	b90027b3 	str	w19, [x29,#36]
    40103c50:	f940c000 	ldr	x0, [x0,#384]
    40103c54:	f9400801 	ldr	x1, [x0,#16]
    40103c58:	910083a0 	add	x0, x29, #0x20
    40103c5c:	d63f0020 	blr	x1
    40103c60:	2a0003f3 	mov	w19, w0
    40103c64:	37f800a0 	tbnz	w0, #31, 40103c78 <emmc_set_ext_csd+0x70>
    40103c68:	97ffffb8 	bl	40103b48 <emmc_device_state>
    40103c6c:	37f800e0 	tbnz	w0, #31, 40103c88 <emmc_set_ext_csd+0x80>
    40103c70:	71001c1f 	cmp	w0, #0x7
    40103c74:	54ffffa0 	b.eq	40103c68 <emmc_set_ext_csd+0x60>
    40103c78:	2a1303e0 	mov	w0, w19
    40103c7c:	a94153f3 	ldp	x19, x20, [sp,#16]
    40103c80:	a8c47bfd 	ldp	x29, x30, [sp],#64
    40103c84:	d65f03c0 	ret
    40103c88:	2a0003f3 	mov	w19, w0
    40103c8c:	17fffffb 	b	40103c78 <emmc_set_ext_csd+0x70>

0000000040103c90 <emmc_rw_enable>:
    40103c90:	51000400 	sub	w0, w0, #0x1
    40103c94:	7100181f 	cmp	w0, #0x6
    40103c98:	540002c8 	b.hi	40103cf0 <emmc_rw_enable+0x60>
    40103c9c:	f0000041 	adrp	x1, 4010e000 <__func__.4151+0x10>
    40103ca0:	9105e021 	add	x1, x1, #0x178
    40103ca4:	38604820 	ldrb	w0, [x1,w0,uxtw]
    40103ca8:	10000061 	adr	x1, 40103cb4 <emmc_rw_enable+0x24>
    40103cac:	8b208820 	add	x0, x1, w0, sxtb #2
    40103cb0:	d61f0000 	br	x0
    40103cb4:	52800121 	mov	w1, #0x9                   	// #9
    40103cb8:	52801660 	mov	w0, #0xb3                  	// #179
    40103cbc:	17ffffd3 	b	40103c08 <emmc_set_ext_csd>
    40103cc0:	52800141 	mov	w1, #0xa                   	// #10
    40103cc4:	17fffffd 	b	40103cb8 <emmc_rw_enable+0x28>
    40103cc8:	52800161 	mov	w1, #0xb                   	// #11
    40103ccc:	17fffffb 	b	40103cb8 <emmc_rw_enable+0x28>
    40103cd0:	52800181 	mov	w1, #0xc                   	// #12
    40103cd4:	17fffff9 	b	40103cb8 <emmc_rw_enable+0x28>
    40103cd8:	528001a1 	mov	w1, #0xd                   	// #13
    40103cdc:	17fffff7 	b	40103cb8 <emmc_rw_enable+0x28>
    40103ce0:	528001c1 	mov	w1, #0xe                   	// #14
    40103ce4:	17fffff5 	b	40103cb8 <emmc_rw_enable+0x28>
    40103ce8:	528001e1 	mov	w1, #0xf                   	// #15
    40103cec:	17fffff3 	b	40103cb8 <emmc_rw_enable+0x28>
    40103cf0:	128002a0 	mov	w0, #0xffffffea            	// #-22
    40103cf4:	d65f03c0 	ret

0000000040103cf8 <emmc_read_blocks>:
    40103cf8:	a9ba7bfd 	stp	x29, x30, [sp,#-96]!
    40103cfc:	910003fd 	mov	x29, sp
    40103d00:	a90153f3 	stp	x19, x20, [sp,#16]
    40103d04:	d0000074 	adrp	x20, 40111000 <__BSS_START__>
    40103d08:	a9025bf5 	stp	x21, x22, [sp,#32]
    40103d0c:	2a0003f6 	mov	w22, w0
    40103d10:	f940c280 	ldr	x0, [x20,#384]
    40103d14:	a90363f7 	stp	x23, x24, [sp,#48]
    40103d18:	b4000c20 	cbz	x0, 40103e9c <emmc_read_blocks+0x1a4>
    40103d1c:	f9401400 	ldr	x0, [x0,#40]
    40103d20:	b4000be0 	cbz	x0, 40103e9c <emmc_read_blocks+0x1a4>
    40103d24:	aa0103f7 	mov	x23, x1
    40103d28:	f240203f 	tst	x1, #0x1ff
    40103d2c:	54000b81 	b.ne	40103e9c <emmc_read_blocks+0x1a4>
    40103d30:	aa0203f3 	mov	x19, x2
    40103d34:	f240205f 	tst	x2, #0x1ff
    40103d38:	54000b21 	b.ne	40103e9c <emmc_read_blocks+0x1a4>
    40103d3c:	aa0203e1 	mov	x1, x2
    40103d40:	aa1703e0 	mov	x0, x23
    40103d44:	940026a9 	bl	4010d7e8 <inv_dcache_range>
    40103d48:	f940c280 	ldr	x0, [x20,#384]
    40103d4c:	aa1303e2 	mov	x2, x19
    40103d50:	aa1703e1 	mov	x1, x23
    40103d54:	f9401003 	ldr	x3, [x0,#32]
    40103d58:	2a1603e0 	mov	w0, w22
    40103d5c:	d63f0060 	blr	x3
    40103d60:	36f800e0 	tbz	w0, #31, 40103d7c <emmc_read_blocks+0x84>
    40103d64:	93407c00 	sxtw	x0, w0
    40103d68:	a94153f3 	ldp	x19, x20, [sp,#16]
    40103d6c:	a9425bf5 	ldp	x21, x22, [sp,#32]
    40103d70:	a94363f7 	ldp	x23, x24, [sp,#48]
    40103d74:	a8c67bfd 	ldp	x29, x30, [sp],#96
    40103d78:	d65f03c0 	ret
    40103d7c:	d0000060 	adrp	x0, 40111000 <__BSS_START__>
    40103d80:	aa1403f8 	mov	x24, x20
    40103d84:	aa0003f5 	mov	x21, x0
    40103d88:	b941a001 	ldr	w1, [x0,#416]
    40103d8c:	360007c1 	tbz	w1, #0, 40103e84 <emmc_read_blocks+0x18c>
    40103d90:	d2800381 	mov	x1, #0x1c                  	// #28
    40103d94:	910103a0 	add	x0, x29, #0x40
    40103d98:	940026a2 	bl	4010d820 <zeromem>
    40103d9c:	528002e0 	mov	w0, #0x17                  	// #23
    40103da0:	b90043a0 	str	w0, [x29,#64]
    40103da4:	d349fe60 	lsr	x0, x19, #9
    40103da8:	b90047a0 	str	w0, [x29,#68]
    40103dac:	52800020 	mov	w0, #0x1                   	// #1
    40103db0:	b9004ba0 	str	w0, [x29,#72]
    40103db4:	f940c280 	ldr	x0, [x20,#384]
    40103db8:	f9400801 	ldr	x1, [x0,#16]
    40103dbc:	910103a0 	add	x0, x29, #0x40
    40103dc0:	d63f0020 	blr	x1
    40103dc4:	36f80080 	tbz	w0, #31, 40103dd4 <emmc_read_blocks+0xdc>
    40103dc8:	93407c13 	sxtw	x19, w0
    40103dcc:	aa1303e0 	mov	x0, x19
    40103dd0:	17ffffe6 	b	40103d68 <emmc_read_blocks+0x70>
    40103dd4:	d2800381 	mov	x1, #0x1c                  	// #28
    40103dd8:	910103a0 	add	x0, x29, #0x40
    40103ddc:	94002691 	bl	4010d820 <zeromem>
    40103de0:	52800240 	mov	w0, #0x12                  	// #18
    40103de4:	b90043a0 	str	w0, [x29,#64]
    40103de8:	d0000060 	adrp	x0, 40111000 <__BSS_START__>
    40103dec:	b941a400 	ldr	w0, [x0,#420]
    40103df0:	7203041f 	tst	w0, #0x60000000
    40103df4:	54000501 	b.ne	40103e94 <emmc_read_blocks+0x19c>
    40103df8:	53175ac0 	lsl	w0, w22, #9
    40103dfc:	b90047a0 	str	w0, [x29,#68]
    40103e00:	52800020 	mov	w0, #0x1                   	// #1
    40103e04:	b9004ba0 	str	w0, [x29,#72]
    40103e08:	f940c300 	ldr	x0, [x24,#384]
    40103e0c:	f9400801 	ldr	x1, [x0,#16]
    40103e10:	910103a0 	add	x0, x29, #0x40
    40103e14:	d63f0020 	blr	x1
    40103e18:	37fffd80 	tbnz	w0, #31, 40103dc8 <emmc_read_blocks+0xd0>
    40103e1c:	f940c300 	ldr	x0, [x24,#384]
    40103e20:	aa1303e2 	mov	x2, x19
    40103e24:	aa1703e1 	mov	x1, x23
    40103e28:	f9401403 	ldr	x3, [x0,#40]
    40103e2c:	2a1603e0 	mov	w0, w22
    40103e30:	d63f0060 	blr	x3
    40103e34:	37fffca0 	tbnz	w0, #31, 40103dc8 <emmc_read_blocks+0xd0>
    40103e38:	b941a2a0 	ldr	w0, [x21,#416]
    40103e3c:	370001a0 	tbnz	w0, #0, 40103e70 <emmc_read_blocks+0x178>
    40103e40:	f108027f 	cmp	x19, #0x200
    40103e44:	54000169 	b.ls	40103e70 <emmc_read_blocks+0x178>
    40103e48:	d2800381 	mov	x1, #0x1c                  	// #28
    40103e4c:	910103a0 	add	x0, x29, #0x40
    40103e50:	94002674 	bl	4010d820 <zeromem>
    40103e54:	52800180 	mov	w0, #0xc                   	// #12
    40103e58:	b90043a0 	str	w0, [x29,#64]
    40103e5c:	f940c300 	ldr	x0, [x24,#384]
    40103e60:	f9400801 	ldr	x1, [x0,#16]
    40103e64:	910103a0 	add	x0, x29, #0x40
    40103e68:	d63f0020 	blr	x1
    40103e6c:	37fffae0 	tbnz	w0, #31, 40103dc8 <emmc_read_blocks+0xd0>
    40103e70:	97ffff36 	bl	40103b48 <emmc_device_state>
    40103e74:	93407c01 	sxtw	x1, w0
    40103e78:	7100001f 	cmp	w0, #0x0
    40103e7c:	9a93b033 	csel	x19, x1, x19, lt
    40103e80:	17ffffd3 	b	40103dcc <emmc_read_blocks+0xd4>
    40103e84:	f108027f 	cmp	x19, #0x200
    40103e88:	54fffac8 	b.hi	40103de0 <emmc_read_blocks+0xe8>
    40103e8c:	52800220 	mov	w0, #0x11                  	// #17
    40103e90:	17ffffd5 	b	40103de4 <emmc_read_blocks+0xec>
    40103e94:	b90047b6 	str	w22, [x29,#68]
    40103e98:	17ffffda 	b	40103e00 <emmc_read_blocks+0x108>
    40103e9c:	928002a0 	mov	x0, #0xffffffffffffffea    	// #-22
    40103ea0:	17ffffb2 	b	40103d68 <emmc_read_blocks+0x70>

0000000040103ea4 <emmc_partition_read_blocks>:
    40103ea4:	a9bd7bfd 	stp	x29, x30, [sp,#-48]!
    40103ea8:	910003fd 	mov	x29, sp
    40103eac:	a90153f3 	stp	x19, x20, [sp,#16]
    40103eb0:	2a0103f3 	mov	w19, w1
    40103eb4:	f90013f5 	str	x21, [sp,#32]
    40103eb8:	aa0203f4 	mov	x20, x2
    40103ebc:	aa0303f5 	mov	x21, x3
    40103ec0:	97ffff74 	bl	40103c90 <emmc_rw_enable>
    40103ec4:	36f800e0 	tbz	w0, #31, 40103ee0 <emmc_partition_read_blocks+0x3c>
    40103ec8:	93407c13 	sxtw	x19, w0
    40103ecc:	aa1303e0 	mov	x0, x19
    40103ed0:	f94013f5 	ldr	x21, [sp,#32]
    40103ed4:	a94153f3 	ldp	x19, x20, [sp,#16]
    40103ed8:	a8c37bfd 	ldp	x29, x30, [sp],#48
    40103edc:	d65f03c0 	ret
    40103ee0:	aa1503e2 	mov	x2, x21
    40103ee4:	aa1403e1 	mov	x1, x20
    40103ee8:	2a1303e0 	mov	w0, w19
    40103eec:	97ffff83 	bl	40103cf8 <emmc_read_blocks>
    40103ef0:	52800101 	mov	w1, #0x8                   	// #8
    40103ef4:	aa0003f3 	mov	x19, x0
    40103ef8:	52801660 	mov	w0, #0xb3                  	// #179
    40103efc:	97ffff43 	bl	40103c08 <emmc_set_ext_csd>
    40103f00:	93407c01 	sxtw	x1, w0
    40103f04:	7100001f 	cmp	w0, #0x0
    40103f08:	9a93b033 	csel	x19, x1, x19, lt
    40103f0c:	17fffff0 	b	40103ecc <emmc_partition_read_blocks+0x28>

0000000040103f10 <emmc_init>:
    40103f10:	b40017e0 	cbz	x0, 4010420c <emmc_init+0x2fc>
    40103f14:	f9400004 	ldr	x4, [x0]
    40103f18:	b40017a4 	cbz	x4, 4010420c <emmc_init+0x2fc>
    40103f1c:	f9400405 	ldr	x5, [x0,#8]
    40103f20:	b4001765 	cbz	x5, 4010420c <emmc_init+0x2fc>
    40103f24:	f9400805 	ldr	x5, [x0,#16]
    40103f28:	b4001725 	cbz	x5, 4010420c <emmc_init+0x2fc>
    40103f2c:	f9400c05 	ldr	x5, [x0,#24]
    40103f30:	b40016e5 	cbz	x5, 4010420c <emmc_init+0x2fc>
    40103f34:	f9401005 	ldr	x5, [x0,#32]
    40103f38:	b40016a5 	cbz	x5, 4010420c <emmc_init+0x2fc>
    40103f3c:	f9401405 	ldr	x5, [x0,#40]
    40103f40:	b4001665 	cbz	x5, 4010420c <emmc_init+0x2fc>
    40103f44:	f9401805 	ldr	x5, [x0,#48]
    40103f48:	b4001625 	cbz	x5, 4010420c <emmc_init+0x2fc>
    40103f4c:	7100003f 	cmp	w1, #0x0
    40103f50:	7a421842 	ccmp	w2, #0x2, #0x2, ne
    40103f54:	540015c8 	b.hi	4010420c <emmc_init+0x2fc>
    40103f58:	a9b87bfd 	stp	x29, x30, [sp,#-128]!
    40103f5c:	910003fd 	mov	x29, sp
    40103f60:	a90153f3 	stp	x19, x20, [sp,#16]
    40103f64:	d0000073 	adrp	x19, 40111000 <__BSS_START__>
    40103f68:	f9002bfb 	str	x27, [sp,#80]
    40103f6c:	d0000074 	adrp	x20, 40111000 <__BSS_START__>
    40103f70:	5280101b 	mov	w27, #0x80                  	// #128
    40103f74:	91069294 	add	x20, x20, #0x1a4
    40103f78:	a9025bf5 	stp	x21, x22, [sp,#32]
    40103f7c:	72a8001b 	movk	w27, #0x4000, lsl #16
    40103f80:	a9046bf9 	stp	x25, x26, [sp,#64]
    40103f84:	52800079 	mov	w25, #0x3                   	// #3
    40103f88:	f900c260 	str	x0, [x19,#384]
    40103f8c:	d0000060 	adrp	x0, 40111000 <__BSS_START__>
    40103f90:	a90363f7 	stp	x23, x24, [sp,#48]
    40103f94:	2a0203f5 	mov	w21, w2
    40103f98:	2a0103f6 	mov	w22, w1
    40103f9c:	b901a003 	str	w3, [x0,#416]
    40103fa0:	d63f0080 	blr	x4
    40103fa4:	71000739 	subs	w25, w25, #0x1
    40103fa8:	540001a1 	b.ne	40103fdc <emmc_init+0xcc>
    40103fac:	f0000040 	adrp	x0, 4010e000 <__func__.4151+0x10>
    40103fb0:	9107a000 	add	x0, x0, #0x1e8
    40103fb4:	52800061 	mov	w1, #0x3                   	// #3
    40103fb8:	97fff4bc 	bl	401012a8 <tf_printf>
    40103fbc:	12800080 	mov	w0, #0xfffffffb            	// #-5
    40103fc0:	a94153f3 	ldp	x19, x20, [sp,#16]
    40103fc4:	a9425bf5 	ldp	x21, x22, [sp,#32]
    40103fc8:	a94363f7 	ldp	x23, x24, [sp,#48]
    40103fcc:	a9446bf9 	ldp	x25, x26, [sp,#64]
    40103fd0:	f9402bfb 	ldr	x27, [sp,#80]
    40103fd4:	a8c87bfd 	ldp	x29, x30, [sp],#128
    40103fd8:	d65f03c0 	ret
    40103fdc:	f940c260 	ldr	x0, [x19,#384]
    40103fe0:	f9400400 	ldr	x0, [x0,#8]
    40103fe4:	d63f0000 	blr	x0
    40103fe8:	d2800381 	mov	x1, #0x1c                  	// #28
    40103fec:	910183a0 	add	x0, x29, #0x60
    40103ff0:	9400260c 	bl	4010d820 <zeromem>
    40103ff4:	b90063bf 	str	wzr, [x29,#96]
    40103ff8:	f940c260 	ldr	x0, [x19,#384]
    40103ffc:	f9400801 	ldr	x1, [x0,#16]
    40104000:	910183a0 	add	x0, x29, #0x60
    40104004:	d63f0020 	blr	x1
    40104008:	35fffce0 	cbnz	w0, 40103fa4 <emmc_init+0x94>
    4010400c:	97fff3f7 	bl	40100fe8 <get_timer>
    40104010:	2a0003fa 	mov	w26, w0
    40104014:	52800038 	mov	w24, #0x1                   	// #1
    40104018:	d2800381 	mov	x1, #0x1c                  	// #28
    4010401c:	910183a0 	add	x0, x29, #0x60
    40104020:	94002600 	bl	4010d820 <zeromem>
    40104024:	290c6fb8 	stp	w24, w27, [x29,#96]
    40104028:	f940c260 	ldr	x0, [x19,#384]
    4010402c:	91060277 	add	x23, x19, #0x180
    40104030:	b9006bb8 	str	w24, [x29,#104]
    40104034:	f9400801 	ldr	x1, [x0,#16]
    40104038:	910183a0 	add	x0, x29, #0x60
    4010403c:	d63f0020 	blr	x1
    40104040:	35fffb20 	cbnz	w0, 40103fa4 <emmc_init+0x94>
    40104044:	b9406fa0 	ldr	w0, [x29,#108]
    40104048:	b9000280 	str	w0, [x20]
    4010404c:	37f80120 	tbnz	w0, #31, 40104070 <emmc_init+0x160>
    40104050:	2a1a03e0 	mov	w0, w26
    40104054:	97fff3e5 	bl	40100fe8 <get_timer>
    40104058:	7117701f 	cmp	w0, #0x5dc
    4010405c:	54fffde9 	b.ls	40104018 <emmc_init+0x108>
    40104060:	d0000040 	adrp	x0, 4010e000 <__func__.4151+0x10>
    40104064:	b9400281 	ldr	w1, [x20]
    40104068:	91080c00 	add	x0, x0, #0x203
    4010406c:	17ffffd3 	b	40103fb8 <emmc_init+0xa8>
    40104070:	d2800381 	mov	x1, #0x1c                  	// #28
    40104074:	910183a0 	add	x0, x29, #0x60
    40104078:	940025ea 	bl	4010d820 <zeromem>
    4010407c:	5280009a 	mov	w26, #0x4                   	// #4
    40104080:	52800040 	mov	w0, #0x2                   	// #2
    40104084:	b90063a0 	str	w0, [x29,#96]
    40104088:	f94002e0 	ldr	x0, [x23]
    4010408c:	b9006bba 	str	w26, [x29,#104]
    40104090:	f9400801 	ldr	x1, [x0,#16]
    40104094:	910183a0 	add	x0, x29, #0x60
    40104098:	d63f0020 	blr	x1
    4010409c:	37fff920 	tbnz	w0, #31, 40103fc0 <emmc_init+0xb0>
    401040a0:	b0000074 	adrp	x20, 40111000 <__BSS_START__>
    401040a4:	91058294 	add	x20, x20, #0x160
    401040a8:	9101b3b9 	add	x25, x29, #0x6c
    401040ac:	d2800202 	mov	x2, #0x10                  	// #16
    401040b0:	aa1903e1 	mov	x1, x25
    401040b4:	aa1403e0 	mov	x0, x20
    401040b8:	97fff82e 	bl	40102170 <memcpy>
    401040bc:	52a000db 	mov	w27, #0x60000               	// #393216
    401040c0:	39403682 	ldrb	w2, [x20,#13]
    401040c4:	91001a83 	add	x3, x20, #0x6
    401040c8:	39403a81 	ldrb	w1, [x20,#14]
    401040cc:	d0000040 	adrp	x0, 4010e000 <__func__.4151+0x10>
    401040d0:	12000442 	and	w2, w2, #0x3
    401040d4:	9108c000 	add	x0, x0, #0x230
    401040d8:	97fff474 	bl	401012a8 <tf_printf>
    401040dc:	d2800381 	mov	x1, #0x1c                  	// #28
    401040e0:	910183a0 	add	x0, x29, #0x60
    401040e4:	940025cf 	bl	4010d820 <zeromem>
    401040e8:	b9006bb8 	str	w24, [x29,#104]
    401040ec:	52800060 	mov	w0, #0x3                   	// #3
    401040f0:	290c6fa0 	stp	w0, w27, [x29,#96]
    401040f4:	f94002e0 	ldr	x0, [x23]
    401040f8:	f9400801 	ldr	x1, [x0,#16]
    401040fc:	910183a0 	add	x0, x29, #0x60
    40104100:	d63f0020 	blr	x1
    40104104:	37fff5e0 	tbnz	w0, #31, 40103fc0 <emmc_init+0xb0>
    40104108:	d2800381 	mov	x1, #0x1c                  	// #28
    4010410c:	910183a0 	add	x0, x29, #0x60
    40104110:	940025c4 	bl	4010d820 <zeromem>
    40104114:	b9006bba 	str	w26, [x29,#104]
    40104118:	52800120 	mov	w0, #0x9                   	// #9
    4010411c:	290c6fa0 	stp	w0, w27, [x29,#96]
    40104120:	f94002e0 	ldr	x0, [x23]
    40104124:	f9400801 	ldr	x1, [x0,#16]
    40104128:	910183a0 	add	x0, x29, #0x60
    4010412c:	d63f0020 	blr	x1
    40104130:	37fff480 	tbnz	w0, #31, 40103fc0 <emmc_init+0xb0>
    40104134:	b0000074 	adrp	x20, 40111000 <__BSS_START__>
    40104138:	9105c29a 	add	x26, x20, #0x170
    4010413c:	d2800202 	mov	x2, #0x10                  	// #16
    40104140:	aa1903e1 	mov	x1, x25
    40104144:	aa1a03e0 	mov	x0, x26
    40104148:	97fff80a 	bl	40102170 <memcpy>
    4010414c:	39401342 	ldrb	w2, [x26,#4]
    40104150:	d0000040 	adrp	x0, 4010e000 <__func__.4151+0x10>
    40104154:	39403b41 	ldrb	w1, [x26,#14]
    40104158:	91099400 	add	x0, x0, #0x265
    4010415c:	d3421842 	ubfx	x2, x2, #2, #5
    40104160:	d3421421 	ubfx	x1, x1, #2, #4
    40104164:	97fff451 	bl	401012a8 <tf_printf>
    40104168:	d2800381 	mov	x1, #0x1c                  	// #28
    4010416c:	910183a0 	add	x0, x29, #0x60
    40104170:	940025ac 	bl	4010d820 <zeromem>
    40104174:	b9006bb8 	str	w24, [x29,#104]
    40104178:	528000e0 	mov	w0, #0x7                   	// #7
    4010417c:	290c6fa0 	stp	w0, w27, [x29,#96]
    40104180:	f94002e0 	ldr	x0, [x23]
    40104184:	f9400801 	ldr	x1, [x0,#16]
    40104188:	910183a0 	add	x0, x29, #0x60
    4010418c:	d63f0020 	blr	x1
    40104190:	37fff180 	tbnz	w0, #31, 40103fc0 <emmc_init+0xb0>
    40104194:	97fffe6d 	bl	40103b48 <emmc_device_state>
    40104198:	37fff140 	tbnz	w0, #31, 40103fc0 <emmc_init+0xb0>
    4010419c:	7100101f 	cmp	w0, #0x4
    401041a0:	54ffffa1 	b.ne	40104194 <emmc_init+0x284>
    401041a4:	9105c280 	add	x0, x20, #0x170
    401041a8:	39403800 	ldrb	w0, [x0,#14]
    401041ac:	121e0c00 	and	w0, w0, #0x3c
    401041b0:	7100401f 	cmp	w0, #0x10
    401041b4:	54000220 	b.eq	401041f8 <emmc_init+0x2e8>
    401041b8:	9105c294 	add	x20, x20, #0x170
    401041bc:	39403a80 	ldrb	w0, [x20,#14]
    401041c0:	121e0c00 	and	w0, w0, #0x3c
    401041c4:	7100401f 	cmp	w0, #0x10
    401041c8:	540000a1 	b.ne	401041dc <emmc_init+0x2cc>
    401041cc:	52800021 	mov	w1, #0x1                   	// #1
    401041d0:	52801720 	mov	w0, #0xb9                  	// #185
    401041d4:	97fffe8d 	bl	40103c08 <emmc_set_ext_csd>
    401041d8:	37ffef40 	tbnz	w0, #31, 40103fc0 <emmc_init+0xb0>
    401041dc:	f940c260 	ldr	x0, [x19,#384]
    401041e0:	52800022 	mov	w2, #0x1                   	// #1
    401041e4:	2a1503e1 	mov	w1, w21
    401041e8:	f9400c03 	ldr	x3, [x0,#24]
    401041ec:	2a1603e0 	mov	w0, w22
    401041f0:	d63f0060 	blr	x3
    401041f4:	17ffff73 	b	40103fc0 <emmc_init+0xb0>
    401041f8:	2a1503e1 	mov	w1, w21
    401041fc:	528016e0 	mov	w0, #0xb7                  	// #183
    40104200:	97fffe82 	bl	40103c08 <emmc_set_ext_csd>
    40104204:	36fffda0 	tbz	w0, #31, 401041b8 <emmc_init+0x2a8>
    40104208:	17ffff6e 	b	40103fc0 <emmc_init+0xb0>
    4010420c:	128002a0 	mov	w0, #0xffffffea            	// #-22
    40104210:	d65f03c0 	ret

0000000040104214 <bm_emmc_prepare>:
    40104214:	929fffe0 	mov	x0, #0xffffffffffff0000    	// #-65536
    40104218:	b24047e3 	mov	x3, #0x3ffff               	// #262143
    4010421c:	f2b7fe00 	movk	x0, #0xbff0, lsl #16
    40104220:	8b000020 	add	x0, x1, x0
    40104224:	eb03001f 	cmp	x0, x3
    40104228:	54000428 	b.hi	401042ac <bm_emmc_prepare+0x98>
    4010422c:	929fffe3 	mov	x3, #0xffffffffffff0000    	// #-65536
    40104230:	f2b97e03 	movk	x3, #0xcbf0, lsl #16
    40104234:	8b030023 	add	x3, x1, x3
    40104238:	f240203f 	tst	x1, #0x1ff
    4010423c:	540004a1 	b.ne	401042d0 <bm_emmc_prepare+0xbc>
    40104240:	f240205f 	tst	x2, #0x1ff
    40104244:	54000461 	b.ne	401042d0 <bm_emmc_prepare+0xbc>
    40104248:	d0000040 	adrp	x0, 4010e000 <__func__.4151+0x10>
    4010424c:	d349fc42 	lsr	x2, x2, #9
    40104250:	f9467400 	ldr	x0, [x0,#3304]
    40104254:	1100f801 	add	w1, w0, #0x3e
    40104258:	79400024 	ldrh	w4, [x1]
    4010425c:	d360fc61 	lsr	x1, x3, #32
    40104260:	366002a4 	tbz	w4, #12, 401042b4 <bm_emmc_prepare+0xa0>
    40104264:	11016004 	add	w4, w0, #0x58
    40104268:	b9000083 	str	w3, [x4]
    4010426c:	11017003 	add	w3, w0, #0x5c
    40104270:	b9000061 	str	w1, [x3]
    40104274:	92407c01 	and	x1, x0, #0xffffffff
    40104278:	b9000022 	str	w2, [x1]
    4010427c:	11001801 	add	w1, w0, #0x6
    40104280:	7900003f 	strh	wzr, [x1]
    40104284:	11001001 	add	w1, w0, #0x4
    40104288:	1100a000 	add	w0, w0, #0x28
    4010428c:	528e4002 	mov	w2, #0x7200                	// #29184
    40104290:	79000022 	strh	w2, [x1]
    40104294:	52801ce2 	mov	w2, #0xe7                  	// #231
    40104298:	39400001 	ldrb	w1, [x0]
    4010429c:	0a020021 	and	w1, w1, w2
    401042a0:	39000001 	strb	w1, [x0]
    401042a4:	52800000 	mov	w0, #0x0                   	// #0
    401042a8:	d65f03c0 	ret
    401042ac:	aa0103e3 	mov	x3, x1
    401042b0:	17ffffe2 	b	40104238 <bm_emmc_prepare+0x24>
    401042b4:	b50000e1 	cbnz	x1, 401042d0 <bm_emmc_prepare+0xbc>
    401042b8:	92407c01 	and	x1, x0, #0xffffffff
    401042bc:	12003c42 	and	w2, w2, #0xffff
    401042c0:	b9000023 	str	w3, [x1]
    401042c4:	11001801 	add	w1, w0, #0x6
    401042c8:	79000022 	strh	w2, [x1]
    401042cc:	17ffffee 	b	40104284 <bm_emmc_prepare+0x70>
    401042d0:	128002a0 	mov	w0, #0xffffffea            	// #-22
    401042d4:	d65f03c0 	ret

00000000401042d8 <bm_emmc_write>:
    401042d8:	52800000 	mov	w0, #0x0                   	// #0
    401042dc:	d65f03c0 	ret

00000000401042e0 <bm_emmc_dev_reset>:
    401042e0:	a9be7bfd 	stp	x29, x30, [sp,#-32]!
    401042e4:	d0000040 	adrp	x0, 4010e000 <__func__.4151+0x10>
    401042e8:	910003fd 	mov	x29, sp
    401042ec:	a90153f3 	stp	x19, x20, [sp,#16]
    401042f0:	f9467414 	ldr	x20, [x0,#3304]
    401042f4:	d0000040 	adrp	x0, 4010e000 <__func__.4151+0x10>
    401042f8:	910c0000 	add	x0, x0, #0x300
    401042fc:	7941d293 	ldrh	w19, [x20,#232]
    40104300:	92402e73 	and	x19, x19, #0xfff
    40104304:	78746a61 	ldrh	w1, [x19,x20]
    40104308:	12003c21 	and	w1, w1, #0xffff
    4010430c:	97fff3e7 	bl	401012a8 <tf_printf>
    40104310:	78746a60 	ldrh	w0, [x19,x20]
    40104314:	529fdfe1 	mov	w1, #0xfeff                	// #65279
    40104318:	0a010000 	and	w0, w0, w1
    4010431c:	78346a60 	strh	w0, [x19,x20]
    40104320:	d0000040 	adrp	x0, 4010e000 <__func__.4151+0x10>
    40104324:	910c5800 	add	x0, x0, #0x316
    40104328:	78746a61 	ldrh	w1, [x19,x20]
    4010432c:	12003c21 	and	w1, w1, #0xffff
    40104330:	97fff3de 	bl	401012a8 <tf_printf>
    40104334:	52800020 	mov	w0, #0x1                   	// #1
    40104338:	97fff329 	bl	40100fdc <mdelay>
    4010433c:	78746a60 	ldrh	w0, [x19,x20]
    40104340:	12003c00 	and	w0, w0, #0xffff
    40104344:	32180000 	orr	w0, w0, #0x100
    40104348:	78346a60 	strh	w0, [x19,x20]
    4010434c:	d0000040 	adrp	x0, 4010e000 <__func__.4151+0x10>
    40104350:	910cbc00 	add	x0, x0, #0x32f
    40104354:	78746a61 	ldrh	w1, [x19,x20]
    40104358:	12003c21 	and	w1, w1, #0xffff
    4010435c:	97fff3d3 	bl	401012a8 <tf_printf>
    40104360:	a94153f3 	ldp	x19, x20, [sp,#16]
    40104364:	52800020 	mov	w0, #0x1                   	// #1
    40104368:	a8c27bfd 	ldp	x29, x30, [sp],#32
    4010436c:	17fff31c 	b	40100fdc <mdelay>

0000000040104370 <bm_emmc_send_cmd>:
    40104370:	a9bc7bfd 	stp	x29, x30, [sp,#-64]!
    40104374:	d0000041 	adrp	x1, 4010e000 <__func__.4151+0x10>
    40104378:	910003fd 	mov	x29, sp
    4010437c:	a90153f3 	stp	x19, x20, [sp,#16]
    40104380:	aa0003f3 	mov	x19, x0
    40104384:	b9400002 	ldr	w2, [x0]
    40104388:	a9025bf5 	stp	x21, x22, [sp,#32]
    4010438c:	a90363f7 	stp	x23, x24, [sp,#48]
    40104390:	7100645f 	cmp	w2, #0x19
    40104394:	f9467434 	ldr	x20, [x1,#3304]
    40104398:	54000f88 	b.hi	40104588 <bm_emmc_send_cmd+0x218>
    4010439c:	d2800020 	mov	x0, #0x1                   	// #1
    401043a0:	d2a060c3 	mov	x3, #0x3060000             	// #50724864
    401043a4:	9ac22000 	lsl	x0, x0, x2
    401043a8:	ea03001f 	tst	x0, x3
    401043ac:	54000ee0 	b.eq	40104588 <bm_emmc_send_cmd+0x218>
    401043b0:	b9402680 	ldr	w0, [x20,#36]
    401043b4:	3707ffe0 	tbnz	w0, #0, 401043b0 <bm_emmc_send_cmd+0x40>
    401043b8:	51004441 	sub	w1, w2, #0x11
    401043bc:	7100203f 	cmp	w1, #0x8
    401043c0:	54000568 	b.hi	4010446c <bm_emmc_send_cmd+0xfc>
    401043c4:	d0000040 	adrp	x0, 4010e000 <__func__.4151+0x10>
    401043c8:	910a5000 	add	x0, x0, #0x294
    401043cc:	38614800 	ldrb	w0, [x0,w1,uxtw]
    401043d0:	10000061 	adr	x1, 401043dc <bm_emmc_send_cmd+0x6c>
    401043d4:	8b208820 	add	x0, x1, w0, sxtb #2
    401043d8:	d61f0000 	br	x0
    401043dc:	52800460 	mov	w0, #0x23                  	// #35
    401043e0:	12003c00 	and	w0, w0, #0xffff
    401043e4:	79001a80 	strh	w0, [x20,#12]
    401043e8:	b9400660 	ldr	w0, [x19,#4]
    401043ec:	b9000a80 	str	w0, [x20,#8]
    401043f0:	b9400260 	ldr	w0, [x19]
    401043f4:	34000560 	cbz	w0, 401044a0 <bm_emmc_send_cmd+0x130>
    401043f8:	b9400a61 	ldr	w1, [x19,#8]
    401043fc:	f27e003f 	tst	x1, #0x4
    40104400:	1a9f17f6 	cset	w22, eq
    40104404:	110006d6 	add	w22, w22, #0x1
    40104408:	321d0ac1 	orr	w1, w22, #0x38
    4010440c:	9100c295 	add	x21, x20, #0x30
    40104410:	2a002020 	orr	w0, w1, w0, lsl #8
    40104414:	12003c00 	and	w0, w0, #0xffff
    40104418:	79001e80 	strh	w0, [x20,#14]
    4010441c:	79401a80 	ldrh	w0, [x20,#12]
    40104420:	37400500 	tbnz	w0, #8, 401044c0 <bm_emmc_send_cmd+0x150>
    40104424:	52800000 	mov	w0, #0x0                   	// #0
    40104428:	97fff2f0 	bl	40100fe8 <get_timer>
    4010442c:	2a0003f7 	mov	w23, w0
    40104430:	794002a0 	ldrh	w0, [x21]
    40104434:	12003c00 	and	w0, w0, #0xffff
    40104438:	36780380 	tbz	w0, #15, 401044a8 <bm_emmc_send_cmd+0x138>
    4010443c:	794002a3 	ldrh	w3, [x21]
    40104440:	d0000041 	adrp	x1, 4010e000 <__func__.4151+0x10>
    40104444:	79406684 	ldrh	w4, [x20,#50]
    40104448:	910a8021 	add	x1, x1, #0x2a0
    4010444c:	b9400262 	ldr	w2, [x19]
    40104450:	12003c63 	and	w3, w3, #0xffff
    40104454:	12003c84 	and	w4, w4, #0xffff
    40104458:	d0000040 	adrp	x0, 4010e000 <__func__.4151+0x10>
    4010445c:	910f8400 	add	x0, x0, #0x3e1
    40104460:	97fff392 	bl	401012a8 <tf_printf>
    40104464:	12800080 	mov	w0, #0xfffffffb            	// #-5
    40104468:	14000007 	b	40104484 <bm_emmc_send_cmd+0x114>
    4010446c:	d0000041 	adrp	x1, 4010e000 <__func__.4151+0x10>
    40104470:	d0000040 	adrp	x0, 4010e000 <__func__.4151+0x10>
    40104474:	910a8021 	add	x1, x1, #0x2a0
    40104478:	910f2000 	add	x0, x0, #0x3c8
    4010447c:	97fff38b 	bl	401012a8 <tf_printf>
    40104480:	128002a0 	mov	w0, #0xffffffea            	// #-22
    40104484:	a94153f3 	ldp	x19, x20, [sp,#16]
    40104488:	a9425bf5 	ldp	x21, x22, [sp,#32]
    4010448c:	a94363f7 	ldp	x23, x24, [sp,#48]
    40104490:	a8c47bfd 	ldp	x29, x30, [sp],#64
    40104494:	d65f03c0 	ret
    40104498:	52800660 	mov	w0, #0x33                  	// #51
    4010449c:	17ffffd1 	b	401043e0 <bm_emmc_send_cmd+0x70>
    401044a0:	52800016 	mov	w22, #0x0                   	// #0
    401044a4:	17ffffd9 	b	40104408 <bm_emmc_send_cmd+0x98>
    401044a8:	36000220 	tbz	w0, #0, 401044ec <bm_emmc_send_cmd+0x17c>
    401044ac:	32000000 	orr	w0, w0, #0x1
    401044b0:	790002a0 	strh	w0, [x21]
    401044b4:	b9401280 	ldr	w0, [x20,#16]
    401044b8:	b9000e60 	str	w0, [x19,#12]
    401044bc:	370002d6 	tbnz	w22, #0, 40104514 <bm_emmc_send_cmd+0x1a4>
    401044c0:	52800000 	mov	w0, #0x0                   	// #0
    401044c4:	97fff2c9 	bl	40100fe8 <get_timer>
    401044c8:	2a0003f7 	mov	w23, w0
    401044cc:	5284e218 	mov	w24, #0x2710                	// #10000
    401044d0:	794002b6 	ldrh	w22, [x21]
    401044d4:	12003ed6 	and	w22, w22, #0xffff
    401044d8:	377ffb36 	tbnz	w22, #15, 4010443c <bm_emmc_send_cmd+0xcc>
    401044dc:	360802b6 	tbz	w22, #1, 40104530 <bm_emmc_send_cmd+0x1c0>
    401044e0:	790002b6 	strh	w22, [x21]
    401044e4:	52800000 	mov	w0, #0x0                   	// #0
    401044e8:	17ffffe7 	b	40104484 <bm_emmc_send_cmd+0x114>
    401044ec:	2a1703e0 	mov	w0, w23
    401044f0:	97fff2be 	bl	40100fe8 <get_timer>
    401044f4:	7101901f 	cmp	w0, #0x64
    401044f8:	54fff9c9 	b.ls	40104430 <bm_emmc_send_cmd+0xc0>
    401044fc:	b9400262 	ldr	w2, [x19]
    40104500:	d0000041 	adrp	x1, 4010e000 <__func__.4151+0x10>
    40104504:	910a8021 	add	x1, x1, #0x2a0
    40104508:	d0000040 	adrp	x0, 4010e000 <__func__.4151+0x10>
    4010450c:	91104c00 	add	x0, x0, #0x413
    40104510:	14000011 	b	40104554 <bm_emmc_send_cmd+0x1e4>
    40104514:	b9401680 	ldr	w0, [x20,#20]
    40104518:	b9001260 	str	w0, [x19,#16]
    4010451c:	b9401a80 	ldr	w0, [x20,#24]
    40104520:	b9001660 	str	w0, [x19,#20]
    40104524:	b9401e80 	ldr	w0, [x20,#28]
    40104528:	b9001a60 	str	w0, [x19,#24]
    4010452c:	17ffffe5 	b	401044c0 <bm_emmc_send_cmd+0x150>
    40104530:	2a1703e0 	mov	w0, w23
    40104534:	97fff2ad 	bl	40100fe8 <get_timer>
    40104538:	6b18001f 	cmp	w0, w24
    4010453c:	54000109 	b.ls	4010455c <bm_emmc_send_cmd+0x1ec>
    40104540:	b9400262 	ldr	w2, [x19]
    40104544:	d0000041 	adrp	x1, 4010e000 <__func__.4151+0x10>
    40104548:	d0000040 	adrp	x0, 4010e000 <__func__.4151+0x10>
    4010454c:	910a8021 	add	x1, x1, #0x2a0
    40104550:	9110c400 	add	x0, x0, #0x431
    40104554:	97fff355 	bl	401012a8 <tf_printf>
    40104558:	17ffffc3 	b	40104464 <bm_emmc_send_cmd+0xf4>
    4010455c:	361ffbb6 	tbz	w22, #3, 401044d0 <bm_emmc_send_cmd+0x160>
    40104560:	790002b6 	strh	w22, [x21]
    40104564:	79407e80 	ldrh	w0, [x20,#62]
    40104568:	366000a0 	tbz	w0, #12, 4010457c <bm_emmc_send_cmd+0x20c>
    4010456c:	b9405a80 	ldr	w0, [x20,#88]
    40104570:	b9005a80 	str	w0, [x20,#88]
    40104574:	b9005e9f 	str	wzr, [x20,#92]
    40104578:	17ffffd6 	b	401044d0 <bm_emmc_send_cmd+0x160>
    4010457c:	b9400280 	ldr	w0, [x20]
    40104580:	b9000280 	str	w0, [x20]
    40104584:	17ffffd3 	b	401044d0 <bm_emmc_send_cmd+0x160>
    40104588:	b9402680 	ldr	w0, [x20,#36]
    4010458c:	91009281 	add	x1, x20, #0x24
    40104590:	3707ffc0 	tbnz	w0, #0, 40104588 <bm_emmc_send_cmd+0x218>
    40104594:	34000462 	cbz	w2, 40104620 <bm_emmc_send_cmd+0x2b0>
    40104598:	7100045f 	cmp	w2, #0x1
    4010459c:	54000460 	b.eq	40104628 <bm_emmc_send_cmd+0x2b8>
    401045a0:	7100185f 	cmp	w2, #0x6
    401045a4:	54000460 	b.eq	40104630 <bm_emmc_send_cmd+0x2c0>
    401045a8:	b9400a60 	ldr	w0, [x19,#8]
    401045ac:	52800135 	mov	w21, #0x9                   	// #9
    401045b0:	f27e001f 	tst	x0, #0x4
    401045b4:	52800340 	mov	w0, #0x1a                  	// #26
    401045b8:	1a8012b5 	csel	w21, w21, w0, ne
    401045bc:	f24006bf 	tst	x21, #0x3
    401045c0:	54000060 	b.eq	401045cc <bm_emmc_send_cmd+0x25c>
    401045c4:	b9400020 	ldr	w0, [x1]
    401045c8:	370fffe0 	tbnz	w0, #1, 401045c4 <bm_emmc_send_cmd+0x254>
    401045cc:	b9400660 	ldr	w0, [x19,#4]
    401045d0:	b9000a80 	str	w0, [x20,#8]
    401045d4:	b9400260 	ldr	w0, [x19]
    401045d8:	2a0022a0 	orr	w0, w21, w0, lsl #8
    401045dc:	12003c00 	and	w0, w0, #0xffff
    401045e0:	79001e80 	strh	w0, [x20,#14]
    401045e4:	52800000 	mov	w0, #0x0                   	// #0
    401045e8:	97fff280 	bl	40100fe8 <get_timer>
    401045ec:	2a0003f6 	mov	w22, w0
    401045f0:	79406280 	ldrh	w0, [x20,#48]
    401045f4:	9100c281 	add	x1, x20, #0x30
    401045f8:	12003c00 	and	w0, w0, #0xffff
    401045fc:	367801e0 	tbz	w0, #15, 40104638 <bm_emmc_send_cmd+0x2c8>
    40104600:	79400023 	ldrh	w3, [x1]
    40104604:	d0000041 	adrp	x1, 4010e000 <__func__.4151+0x10>
    40104608:	79406684 	ldrh	w4, [x20,#50]
    4010460c:	910b0021 	add	x1, x1, #0x2c0
    40104610:	12003c63 	and	w3, w3, #0xffff
    40104614:	b9400262 	ldr	w2, [x19]
    40104618:	12003c84 	and	w4, w4, #0xffff
    4010461c:	17ffff8f 	b	40104458 <bm_emmc_send_cmd+0xe8>
    40104620:	52800015 	mov	w21, #0x0                   	// #0
    40104624:	17ffffe6 	b	401045bc <bm_emmc_send_cmd+0x24c>
    40104628:	52800055 	mov	w21, #0x2                   	// #2
    4010462c:	17ffffe4 	b	401045bc <bm_emmc_send_cmd+0x24c>
    40104630:	52800075 	mov	w21, #0x3                   	// #3
    40104634:	17ffffe2 	b	401045bc <bm_emmc_send_cmd+0x24c>
    40104638:	360001a0 	tbz	w0, #0, 4010466c <bm_emmc_send_cmd+0x2fc>
    4010463c:	32000000 	orr	w0, w0, #0x1
    40104640:	79000020 	strh	w0, [x1]
    40104644:	b9401280 	ldr	w0, [x20,#16]
    40104648:	b9000e60 	str	w0, [x19,#12]
    4010464c:	3607f4d5 	tbz	w21, #0, 401044e4 <bm_emmc_send_cmd+0x174>
    40104650:	b9401680 	ldr	w0, [x20,#20]
    40104654:	b9001260 	str	w0, [x19,#16]
    40104658:	b9401a80 	ldr	w0, [x20,#24]
    4010465c:	b9001660 	str	w0, [x19,#20]
    40104660:	b9401e80 	ldr	w0, [x20,#28]
    40104664:	b9001a60 	str	w0, [x19,#24]
    40104668:	17ffff9f 	b	401044e4 <bm_emmc_send_cmd+0x174>
    4010466c:	2a1603e0 	mov	w0, w22
    40104670:	97fff25e 	bl	40100fe8 <get_timer>
    40104674:	7101901f 	cmp	w0, #0x64
    40104678:	54fffbc9 	b.ls	401045f0 <bm_emmc_send_cmd+0x280>
    4010467c:	d0000041 	adrp	x1, 4010e000 <__func__.4151+0x10>
    40104680:	b9400262 	ldr	w2, [x19]
    40104684:	910b0021 	add	x1, x1, #0x2c0
    40104688:	17ffffa0 	b	40104508 <bm_emmc_send_cmd+0x198>

000000004010468c <bm_emmc_read>:
    4010468c:	52800000 	mov	w0, #0x0                   	// #0
    40104690:	d65f03c0 	ret

0000000040104694 <bm_emmc_set_clk>:
    40104694:	a9be7bfd 	stp	x29, x30, [sp,#-32]!
    40104698:	2a0003e2 	mov	w2, w0
    4010469c:	7100001f 	cmp	w0, #0x0
    401046a0:	910003fd 	mov	x29, sp
    401046a4:	a90153f3 	stp	x19, x20, [sp,#16]
    401046a8:	5400014c 	b.gt	401046d0 <bm_emmc_set_clk+0x3c>
    401046ac:	d0000041 	adrp	x1, 4010e000 <__func__.4151+0x10>
    401046b0:	d0000040 	adrp	x0, 4010e000 <__func__.4151+0x10>
    401046b4:	910b8021 	add	x1, x1, #0x2e0
    401046b8:	91115000 	add	x0, x0, #0x454
    401046bc:	97fff2fb 	bl	401012a8 <tf_printf>
    401046c0:	128002a0 	mov	w0, #0xffffffea            	// #-22
    401046c4:	a94153f3 	ldp	x19, x20, [sp,#16]
    401046c8:	a8c27bfd 	ldp	x29, x30, [sp],#32
    401046cc:	d65f03c0 	ret
    401046d0:	d0000040 	adrp	x0, 4010e000 <__func__.4151+0x10>
    401046d4:	9133a001 	add	x1, x0, #0xce8
    401046d8:	b9402021 	ldr	w1, [x1,#32]
    401046dc:	6b01005f 	cmp	w2, w1
    401046e0:	5400026a 	b.ge	4010472c <bm_emmc_set_clk+0x98>
    401046e4:	52800034 	mov	w20, #0x1                   	// #1
    401046e8:	531f7a83 	lsl	w3, w20, #1
    401046ec:	1ac30c23 	sdiv	w3, w1, w3
    401046f0:	6b03005f 	cmp	w2, w3
    401046f4:	5400008a 	b.ge	40104704 <bm_emmc_set_clk+0x70>
    401046f8:	11000694 	add	w20, w20, #0x1
    401046fc:	7103fe9f 	cmp	w20, #0xff
    40104700:	54ffff41 	b.ne	401046e8 <bm_emmc_set_clk+0x54>
    40104704:	f9467413 	ldr	x19, [x0,#3304]
    40104708:	1100fa60 	add	w0, w19, #0x3e
    4010470c:	93407c00 	sxtw	x0, w0
    40104710:	79400000 	ldrh	w0, [x0]
    40104714:	36780100 	tbz	w0, #15, 40104734 <bm_emmc_set_clk+0xa0>
    40104718:	d0000040 	adrp	x0, 4010e000 <__func__.4151+0x10>
    4010471c:	9111c000 	add	x0, x0, #0x470
    40104720:	97fff2e2 	bl	401012a8 <tf_printf>
    40104724:	52800000 	mov	w0, #0x0                   	// #0
    40104728:	17ffffe7 	b	401046c4 <bm_emmc_set_clk+0x30>
    4010472c:	52800014 	mov	w20, #0x0                   	// #0
    40104730:	17fffff5 	b	40104704 <bm_emmc_set_clk+0x70>
    40104734:	531f7a84 	lsl	w4, w20, #1
    40104738:	1100b273 	add	w19, w19, #0x2c
    4010473c:	93407e73 	sxtw	x19, w19
    40104740:	2a1403e3 	mov	w3, w20
    40104744:	d0000040 	adrp	x0, 4010e000 <__func__.4151+0x10>
    40104748:	91123400 	add	x0, x0, #0x48d
    4010474c:	1ac40c24 	sdiv	w4, w1, w4
    40104750:	97fff2d6 	bl	401012a8 <tf_printf>
    40104754:	79400261 	ldrh	w1, [x19]
    40104758:	529ffec0 	mov	w0, #0xfff6                	// #65526
    4010475c:	0a010000 	and	w0, w0, w1
    40104760:	79000260 	strh	w0, [x19]
    40104764:	52801be0 	mov	w0, #0xdf                  	// #223
    40104768:	79400261 	ldrh	w1, [x19]
    4010476c:	0a010000 	and	w0, w0, w1
    40104770:	2a142014 	orr	w20, w0, w20, lsl #8
    40104774:	12003e94 	and	w20, w20, #0xffff
    40104778:	79000274 	strh	w20, [x19]
    4010477c:	79400260 	ldrh	w0, [x19]
    40104780:	12003c00 	and	w0, w0, #0xffff
    40104784:	32000000 	orr	w0, w0, #0x1
    40104788:	79000260 	strh	w0, [x19]
    4010478c:	528012c0 	mov	w0, #0x96                  	// #150
    40104790:	97fff206 	bl	40100fa8 <udelay>
    40104794:	79400260 	ldrh	w0, [x19]
    40104798:	370800c0 	tbnz	w0, #1, 401047b0 <bm_emmc_set_clk+0x11c>
    4010479c:	d0000040 	adrp	x0, 4010e000 <__func__.4151+0x10>
    401047a0:	91136400 	add	x0, x0, #0x4d9
    401047a4:	97fff2c1 	bl	401012a8 <tf_printf>
    401047a8:	12800080 	mov	w0, #0xfffffffb            	// #-5
    401047ac:	17ffffc6 	b	401046c4 <bm_emmc_set_clk+0x30>
    401047b0:	79400260 	ldrh	w0, [x19]
    401047b4:	12003c00 	and	w0, w0, #0xffff
    401047b8:	321d0000 	orr	w0, w0, #0x8
    401047bc:	79000260 	strh	w0, [x19]
    401047c0:	528012c0 	mov	w0, #0x96                  	// #150
    401047c4:	97fff1f9 	bl	40100fa8 <udelay>
    401047c8:	79400261 	ldrh	w1, [x19]
    401047cc:	52800000 	mov	w0, #0x0                   	// #0
    401047d0:	370ff7a1 	tbnz	w1, #1, 401046c4 <bm_emmc_set_clk+0x30>
    401047d4:	d0000040 	adrp	x0, 4010e000 <__func__.4151+0x10>
    401047d8:	9113e400 	add	x0, x0, #0x4f9
    401047dc:	17fffff2 	b	401047a4 <bm_emmc_set_clk+0x110>

00000000401047e0 <bm_emmc_set_ios>:
    401047e0:	a9bc7bfd 	stp	x29, x30, [sp,#-64]!
    401047e4:	7100043f 	cmp	w1, #0x1
    401047e8:	910003fd 	mov	x29, sp
    401047ec:	a90153f3 	stp	x19, x20, [sp,#16]
    401047f0:	2a0003f3 	mov	w19, w0
    401047f4:	2a0203f4 	mov	w20, w2
    401047f8:	54000460 	b.eq	40104884 <bm_emmc_set_ios+0xa4>
    401047fc:	7100083f 	cmp	w1, #0x2
    40104800:	54000640 	b.eq	401048c8 <bm_emmc_set_ios+0xe8>
    40104804:	35000841 	cbnz	w1, 4010490c <bm_emmc_set_ios+0x12c>
    40104808:	910083a0 	add	x0, x29, #0x20
    4010480c:	d2800381 	mov	x1, #0x1c                  	// #28
    40104810:	94002404 	bl	4010d820 <zeromem>
    40104814:	528000c0 	mov	w0, #0x6                   	// #6
    40104818:	b90023a0 	str	w0, [x29,#32]
    4010481c:	52800020 	mov	w0, #0x1                   	// #1
    40104820:	72a076e0 	movk	w0, #0x3b7, lsl #16
    40104824:	b90027a0 	str	w0, [x29,#36]
    40104828:	910083a0 	add	x0, x29, #0x20
    4010482c:	97fffed1 	bl	40104370 <bm_emmc_send_cmd>
    40104830:	37f807c0 	tbnz	w0, #31, 40104928 <bm_emmc_set_ios+0x148>
    40104834:	d0000040 	adrp	x0, 4010e000 <__func__.4151+0x10>
    40104838:	52801fa2 	mov	w2, #0xfd                  	// #253
    4010483c:	f9467401 	ldr	x1, [x0,#3304]
    40104840:	3940a020 	ldrb	w0, [x1,#40]
    40104844:	0a020000 	and	w0, w0, w2
    40104848:	3900a020 	strb	w0, [x1,#40]
    4010484c:	34000174 	cbz	w20, 40104878 <bm_emmc_set_ios+0x98>
    40104850:	d0000040 	adrp	x0, 4010e000 <__func__.4151+0x10>
    40104854:	f9467401 	ldr	x1, [x0,#3304]
    40104858:	3940a020 	ldrb	w0, [x1,#40]
    4010485c:	12001c00 	and	w0, w0, #0xff
    40104860:	321e0000 	orr	w0, w0, #0x4
    40104864:	3900a020 	strb	w0, [x1,#40]
    40104868:	79407c20 	ldrh	w0, [x1,#62]
    4010486c:	12003c00 	and	w0, w0, #0xffff
    40104870:	321c0000 	orr	w0, w0, #0x10
    40104874:	79007c20 	strh	w0, [x1,#62]
    40104878:	2a1303e0 	mov	w0, w19
    4010487c:	97ffff86 	bl	40104694 <bm_emmc_set_clk>
    40104880:	1400002a 	b	40104928 <bm_emmc_set_ios+0x148>
    40104884:	910083a0 	add	x0, x29, #0x20
    40104888:	d2800381 	mov	x1, #0x1c                  	// #28
    4010488c:	940023e5 	bl	4010d820 <zeromem>
    40104890:	528000c0 	mov	w0, #0x6                   	// #6
    40104894:	b90023a0 	str	w0, [x29,#32]
    40104898:	52802020 	mov	w0, #0x101                 	// #257
    4010489c:	72a076e0 	movk	w0, #0x3b7, lsl #16
    401048a0:	b90027a0 	str	w0, [x29,#36]
    401048a4:	910083a0 	add	x0, x29, #0x20
    401048a8:	97fffeb2 	bl	40104370 <bm_emmc_send_cmd>
    401048ac:	37f803e0 	tbnz	w0, #31, 40104928 <bm_emmc_set_ios+0x148>
    401048b0:	d0000040 	adrp	x0, 4010e000 <__func__.4151+0x10>
    401048b4:	f9467401 	ldr	x1, [x0,#3304]
    401048b8:	3940a020 	ldrb	w0, [x1,#40]
    401048bc:	12001c00 	and	w0, w0, #0xff
    401048c0:	321f0000 	orr	w0, w0, #0x2
    401048c4:	17ffffe1 	b	40104848 <bm_emmc_set_ios+0x68>
    401048c8:	910083a0 	add	x0, x29, #0x20
    401048cc:	d2800381 	mov	x1, #0x1c                  	// #28
    401048d0:	940023d4 	bl	4010d820 <zeromem>
    401048d4:	528000c0 	mov	w0, #0x6                   	// #6
    401048d8:	b90023a0 	str	w0, [x29,#32]
    401048dc:	52804020 	mov	w0, #0x201                 	// #513
    401048e0:	72a076e0 	movk	w0, #0x3b7, lsl #16
    401048e4:	b90027a0 	str	w0, [x29,#36]
    401048e8:	910083a0 	add	x0, x29, #0x20
    401048ec:	97fffea1 	bl	40104370 <bm_emmc_send_cmd>
    401048f0:	37f801c0 	tbnz	w0, #31, 40104928 <bm_emmc_set_ios+0x148>
    401048f4:	d0000040 	adrp	x0, 4010e000 <__func__.4151+0x10>
    401048f8:	f9467401 	ldr	x1, [x0,#3304]
    401048fc:	3940a020 	ldrb	w0, [x1,#40]
    40104900:	12001c00 	and	w0, w0, #0xff
    40104904:	321b0000 	orr	w0, w0, #0x20
    40104908:	17ffffd0 	b	40104848 <bm_emmc_set_ios+0x68>
    4010490c:	2a0103e2 	mov	w2, w1
    40104910:	d0000040 	adrp	x0, 4010e000 <__func__.4151+0x10>
    40104914:	d0000041 	adrp	x1, 4010e000 <__func__.4151+0x10>
    40104918:	91145c00 	add	x0, x0, #0x517
    4010491c:	910bc021 	add	x1, x1, #0x2f0
    40104920:	97fff262 	bl	401012a8 <tf_printf>
    40104924:	128002a0 	mov	w0, #0xffffffea            	// #-22
    40104928:	a94153f3 	ldp	x19, x20, [sp,#16]
    4010492c:	a8c47bfd 	ldp	x29, x30, [sp],#64
    40104930:	d65f03c0 	ret

0000000040104934 <bm_emmc_hw_init>:
    40104934:	a9be7bfd 	stp	x29, x30, [sp,#-32]!
    40104938:	d0000040 	adrp	x0, 4010e000 <__func__.4151+0x10>
    4010493c:	9133a001 	add	x1, x0, #0xce8
    40104940:	910003fd 	mov	x29, sp
    40104944:	f9000bf3 	str	x19, [sp,#16]
    40104948:	f9467413 	ldr	x19, [x0,#3304]
    4010494c:	7941d260 	ldrh	w0, [x19,#232]
    40104950:	92402c00 	and	x0, x0, #0xfff
    40104954:	8b130002 	add	x2, x0, x19
    40104958:	f9000422 	str	x2, [x1,#8]
    4010495c:	528000c1 	mov	w1, #0x6                   	// #6
    40104960:	3900be61 	strb	w1, [x19,#47]
    40104964:	52800181 	mov	w1, #0xc                   	// #12
    40104968:	3900a661 	strb	w1, [x19,#41]
    4010496c:	528001c1 	mov	w1, #0xe                   	// #14
    40104970:	3900ba61 	strb	w1, [x19,#46]
    40104974:	79407e61 	ldrh	w1, [x19,#62]
    40104978:	12003c21 	and	w1, w1, #0xffff
    4010497c:	32150021 	orr	w1, w1, #0x800
    40104980:	79007e61 	strh	w1, [x19,#62]
    40104984:	78736801 	ldrh	w1, [x0,x19]
    40104988:	12003c21 	and	w1, w1, #0xffff
    4010498c:	32000021 	orr	w1, w1, #0x1
    40104990:	78336801 	strh	w1, [x0,x19]
    40104994:	5281a800 	mov	w0, #0xd40                 	// #3392
    40104998:	72a00060 	movk	w0, #0x3, lsl #16
    4010499c:	97ffff3e 	bl	40104694 <bm_emmc_set_clk>
    401049a0:	79407e60 	ldrh	w0, [x19,#62]
    401049a4:	12003c00 	and	w0, w0, #0xffff
    401049a8:	32140000 	orr	w0, w0, #0x1000
    401049ac:	79007e60 	strh	w0, [x19,#62]
    401049b0:	b9404260 	ldr	w0, [x19,#64]
    401049b4:	36d800a0 	tbz	w0, #27, 401049c8 <bm_emmc_hw_init+0x94>
    401049b8:	79407e60 	ldrh	w0, [x19,#62]
    401049bc:	12003c00 	and	w0, w0, #0xffff
    401049c0:	32130000 	orr	w0, w0, #0x2000
    401049c4:	79007e60 	strh	w0, [x19,#62]
    401049c8:	b9424260 	ldr	w0, [x19,#576]
    401049cc:	529fdfe1 	mov	w1, #0xfeff                	// #65279
    401049d0:	12067400 	and	w0, w0, #0xfcffffff
    401049d4:	32080000 	orr	w0, w0, #0x1000000
    401049d8:	b9024260 	str	w0, [x19,#576]
    401049dc:	b9424260 	ldr	w0, [x19,#576]
    401049e0:	12167400 	and	w0, w0, #0xfffffcff
    401049e4:	32180000 	orr	w0, w0, #0x100
    401049e8:	b9024260 	str	w0, [x19,#576]
    401049ec:	b9424e60 	ldr	w0, [x19,#588]
    401049f0:	32000000 	orr	w0, w0, #0x1
    401049f4:	b9024e60 	str	w0, [x19,#588]
    401049f8:	79407e60 	ldrh	w0, [x19,#62]
    401049fc:	0a010000 	and	w0, w0, w1
    40104a00:	79007e60 	strh	w0, [x19,#62]
    40104a04:	3940a660 	ldrb	w0, [x19,#41]
    40104a08:	12001c00 	and	w0, w0, #0xff
    40104a0c:	32000000 	orr	w0, w0, #0x1
    40104a10:	3900a660 	strb	w0, [x19,#41]
    40104a14:	79407e60 	ldrh	w0, [x19,#62]
    40104a18:	121d3000 	and	w0, w0, #0xfff8
    40104a1c:	79007e60 	strh	w0, [x19,#62]
    40104a20:	79407e60 	ldrh	w0, [x19,#62]
    40104a24:	12003c00 	and	w0, w0, #0xffff
    40104a28:	321d0000 	orr	w0, w0, #0x8
    40104a2c:	79007e60 	strh	w0, [x19,#62]
    40104a30:	79405a60 	ldrh	w0, [x19,#44]
    40104a34:	12003c00 	and	w0, w0, #0xffff
    40104a38:	321e0000 	orr	w0, w0, #0x4
    40104a3c:	79005a60 	strh	w0, [x19,#44]
    40104a40:	52803200 	mov	w0, #0x190                 	// #400
    40104a44:	97fff159 	bl	40100fa8 <udelay>
    40104a48:	79406a60 	ldrh	w0, [x19,#52]
    40104a4c:	12800000 	mov	w0, #0xffffffff            	// #-1
    40104a50:	79006a60 	strh	w0, [x19,#52]
    40104a54:	79406e61 	ldrh	w1, [x19,#54]
    40104a58:	79006e60 	strh	w0, [x19,#54]
    40104a5c:	d0000040 	adrp	x0, 4010e000 <__func__.4151+0x10>
    40104a60:	f9400bf3 	ldr	x19, [sp,#16]
    40104a64:	910d2000 	add	x0, x0, #0x348
    40104a68:	a8c27bfd 	ldp	x29, x30, [sp],#32
    40104a6c:	17fff20f 	b	401012a8 <tf_printf>

0000000040104a70 <bm_emmc_phy_init>:
    40104a70:	a9be7bfd 	stp	x29, x30, [sp,#-32]!
    40104a74:	d0000040 	adrp	x0, 4010e000 <__func__.4151+0x10>
    40104a78:	910003fd 	mov	x29, sp
    40104a7c:	f9000bf3 	str	x19, [sp,#16]
    40104a80:	f9467413 	ldr	x19, [x0,#3304]
    40104a84:	79405a60 	ldrh	w0, [x19,#44]
    40104a88:	12001400 	and	w0, w0, #0x3f
    40104a8c:	32170000 	orr	w0, w0, #0x200
    40104a90:	79005a60 	strh	w0, [x19,#44]
    40104a94:	52800020 	mov	w0, #0x1                   	// #1
    40104a98:	97fff151 	bl	40100fdc <mdelay>
    40104a9c:	9100be61 	add	x1, x19, #0x2f
    40104aa0:	528000e0 	mov	w0, #0x7                   	// #7
    40104aa4:	3900be60 	strb	w0, [x19,#47]
    40104aa8:	39400020 	ldrb	w0, [x1]
    40104aac:	72001c1f 	tst	w0, #0xff
    40104ab0:	54ffffc1 	b.ne	40104aa8 <bm_emmc_phy_init+0x38>
    40104ab4:	d2820901 	mov	x1, #0x1048                	// #4168
    40104ab8:	f9400bf3 	ldr	x19, [sp,#16]
    40104abc:	f2a06001 	movk	x1, #0x300, lsl #16
    40104ac0:	b9400020 	ldr	w0, [x1]
    40104ac4:	121d7000 	and	w0, w0, #0xfffffff8
    40104ac8:	b9000020 	str	w0, [x1]
    40104acc:	b9400820 	ldr	w0, [x1,#8]
    40104ad0:	121d7000 	and	w0, w0, #0xfffffff8
    40104ad4:	b9000820 	str	w0, [x1,#8]
    40104ad8:	b9401420 	ldr	w0, [x1,#20]
    40104adc:	121d7000 	and	w0, w0, #0xfffffff8
    40104ae0:	b9001420 	str	w0, [x1,#20]
    40104ae4:	d2820a81 	mov	x1, #0x1054                	// #4180
    40104ae8:	f2a06001 	movk	x1, #0x300, lsl #16
    40104aec:	b9400020 	ldr	w0, [x1]
    40104af0:	121d7000 	and	w0, w0, #0xfffffff8
    40104af4:	b9000020 	str	w0, [x1]
    40104af8:	b9400c20 	ldr	w0, [x1,#12]
    40104afc:	121d7000 	and	w0, w0, #0xfffffff8
    40104b00:	b9000c20 	str	w0, [x1,#12]
    40104b04:	d2820981 	mov	x1, #0x104c                	// #4172
    40104b08:	f2a06001 	movk	x1, #0x300, lsl #16
    40104b0c:	b9400020 	ldr	w0, [x1]
    40104b10:	121d7000 	and	w0, w0, #0xfffffff8
    40104b14:	b9000020 	str	w0, [x1]
    40104b18:	b9400c20 	ldr	w0, [x1,#12]
    40104b1c:	121d7000 	and	w0, w0, #0xfffffff8
    40104b20:	b9000c20 	str	w0, [x1,#12]
    40104b24:	b948d020 	ldr	w0, [x1,#2256]
    40104b28:	121c7400 	and	w0, w0, #0xfffffff3
    40104b2c:	321d0000 	orr	w0, w0, #0x8
    40104b30:	b908d020 	str	w0, [x1,#2256]
    40104b34:	d2832281 	mov	x1, #0x1914                	// #6420
    40104b38:	f2a06001 	movk	x1, #0x300, lsl #16
    40104b3c:	b9400020 	ldr	w0, [x1]
    40104b40:	121c7400 	and	w0, w0, #0xfffffff3
    40104b44:	321e0000 	orr	w0, w0, #0x4
    40104b48:	b9000020 	str	w0, [x1]
    40104b4c:	b9401420 	ldr	w0, [x1,#20]
    40104b50:	121c7400 	and	w0, w0, #0xfffffff3
    40104b54:	321e0000 	orr	w0, w0, #0x4
    40104b58:	b9001420 	str	w0, [x1,#20]
    40104b5c:	d2832401 	mov	x1, #0x1920                	// #6432
    40104b60:	f2a06001 	movk	x1, #0x300, lsl #16
    40104b64:	b9400020 	ldr	w0, [x1]
    40104b68:	121c7400 	and	w0, w0, #0xfffffff3
    40104b6c:	321e0000 	orr	w0, w0, #0x4
    40104b70:	b9000020 	str	w0, [x1]
    40104b74:	b9400c20 	ldr	w0, [x1,#12]
    40104b78:	121c7400 	and	w0, w0, #0xfffffff3
    40104b7c:	321e0000 	orr	w0, w0, #0x4
    40104b80:	b9000c20 	str	w0, [x1,#12]
    40104b84:	d2832301 	mov	x1, #0x1918                	// #6424
    40104b88:	f2a06001 	movk	x1, #0x300, lsl #16
    40104b8c:	b9400020 	ldr	w0, [x1]
    40104b90:	121c7400 	and	w0, w0, #0xfffffff3
    40104b94:	321e0000 	orr	w0, w0, #0x4
    40104b98:	b9000020 	str	w0, [x1]
    40104b9c:	b9400c20 	ldr	w0, [x1,#12]
    40104ba0:	121c7400 	and	w0, w0, #0xfffffff3
    40104ba4:	321e0000 	orr	w0, w0, #0x4
    40104ba8:	b9000c20 	str	w0, [x1,#12]
    40104bac:	a8c27bfd 	ldp	x29, x30, [sp],#32
    40104bb0:	d65f03c0 	ret

0000000040104bb4 <bm_emmc_init>:
    40104bb4:	a9be7bfd 	stp	x29, x30, [sp,#-32]!
    40104bb8:	528ea002 	mov	w2, #0x7500                	// #29952
    40104bbc:	d0000040 	adrp	x0, 4010e000 <__func__.4151+0x10>
    40104bc0:	910d7400 	add	x0, x0, #0x35d
    40104bc4:	910003fd 	mov	x29, sp
    40104bc8:	f9000bf3 	str	x19, [sp,#16]
    40104bcc:	d0000053 	adrp	x19, 4010e000 <__func__.4151+0x10>
    40104bd0:	9133a273 	add	x19, x19, #0xce8
    40104bd4:	72a06322 	movk	w2, #0x319, lsl #16
    40104bd8:	b9402261 	ldr	w1, [x19,#32]
    40104bdc:	97fff1b3 	bl	401012a8 <tf_printf>
    40104be0:	97ffffa4 	bl	40104a70 <bm_emmc_phy_init>
    40104be4:	29448e62 	ldp	w2, w3, [x19,#36]
    40104be8:	528ea001 	mov	w1, #0x7500                	// #29952
    40104bec:	d0000040 	adrp	x0, 4010e000 <__func__.4151+0x10>
    40104bf0:	72a06321 	movk	w1, #0x319, lsl #16
    40104bf4:	910e4000 	add	x0, x0, #0x390
    40104bf8:	97fffcc6 	bl	40103f10 <emmc_init>
    40104bfc:	36f800c0 	tbz	w0, #31, 40104c14 <bm_emmc_init+0x60>
    40104c00:	f9400bf3 	ldr	x19, [sp,#16]
    40104c04:	d0000040 	adrp	x0, 4010e000 <__func__.4151+0x10>
    40104c08:	a8c27bfd 	ldp	x29, x30, [sp],#32
    40104c0c:	910da800 	add	x0, x0, #0x36a
    40104c10:	17fff1a6 	b	401012a8 <tf_printf>
    40104c14:	f9400bf3 	ldr	x19, [sp,#16]
    40104c18:	a8c27bfd 	ldp	x29, x30, [sp],#32
    40104c1c:	d65f03c0 	ret

0000000040104c20 <LzmaDec_WriteRem>:
    40104c20:	b9405c03 	ldr	w3, [x0,#92]
    40104c24:	51000462 	sub	w2, w3, #0x1
    40104c28:	7104405f 	cmp	w2, #0x110
    40104c2c:	540002c8 	b.hi	40104c84 <LzmaDec_WriteRem+0x64>
    40104c30:	f9401402 	ldr	x2, [x0,#40]
    40104c34:	29481c04 	ldp	w4, w7, [x0,#64]
    40104c38:	cb020021 	sub	x1, x1, x2
    40104c3c:	eb23403f 	cmp	x1, w3, uxtw
    40104c40:	b9404806 	ldr	w6, [x0,#72]
    40104c44:	a941a005 	ldp	x5, x8, [x0,#24]
    40104c48:	1a812061 	csel	w1, w3, w1, cs
    40104c4c:	350000c7 	cbnz	w7, 40104c64 <LzmaDec_WriteRem+0x44>
    40104c50:	b9400407 	ldr	w7, [x0,#4]
    40104c54:	4b0400e9 	sub	w9, w7, w4
    40104c58:	6b09003f 	cmp	w1, w9
    40104c5c:	54000043 	b.cc	40104c64 <LzmaDec_WriteRem+0x44>
    40104c60:	b9004407 	str	w7, [x0,#68]
    40104c64:	0b010084 	add	w4, w4, w1
    40104c68:	4b010063 	sub	w3, w3, w1
    40104c6c:	8b214041 	add	x1, x2, w1, uxtw
    40104c70:	b9004004 	str	w4, [x0,#64]
    40104c74:	b9005c03 	str	w3, [x0,#92]
    40104c78:	eb01005f 	cmp	x2, x1
    40104c7c:	54000061 	b.ne	40104c88 <LzmaDec_WriteRem+0x68>
    40104c80:	f9001402 	str	x2, [x0,#40]
    40104c84:	d65f03c0 	ret
    40104c88:	eb06005f 	cmp	x2, x6
    40104c8c:	cb060044 	sub	x4, x2, x6
    40104c90:	9a9f3103 	csel	x3, x8, xzr, cc
    40104c94:	8b0300a3 	add	x3, x5, x3
    40104c98:	38646863 	ldrb	w3, [x3,x4]
    40104c9c:	382268a3 	strb	w3, [x5,x2]
    40104ca0:	91000442 	add	x2, x2, #0x1
    40104ca4:	17fffff5 	b	40104c78 <LzmaDec_WriteRem+0x58>

0000000040104ca8 <LzmaDec_DecodeReal2>:
    40104ca8:	a9b77bfd 	stp	x29, x30, [sp,#-144]!
    40104cac:	aa0003eb 	mov	x11, x0
    40104cb0:	5281000a 	mov	w10, #0x800                 	// #2048
    40104cb4:	910003fd 	mov	x29, sp
    40104cb8:	a9025bf5 	stp	x21, x22, [sp,#32]
    40104cbc:	aa0103f6 	mov	x22, x1
    40104cc0:	a90153f3 	stp	x19, x20, [sp,#16]
    40104cc4:	a90363f7 	stp	x23, x24, [sp,#48]
    40104cc8:	a9046bf9 	stp	x25, x26, [sp,#64]
    40104ccc:	a90573fb 	stp	x27, x28, [sp,#80]
    40104cd0:	f90043a2 	str	x2, [x29,#128]
    40104cd4:	b9404579 	ldr	w25, [x11,#68]
    40104cd8:	2947b160 	ldp	w0, w12, [x11,#60]
    40104cdc:	f9401567 	ldr	x7, [x11,#40]
    40104ce0:	35000299 	cbnz	w25, 40104d30 <LzmaDec_DecodeReal2+0x88>
    40104ce4:	b9400561 	ldr	w1, [x11,#4]
    40104ce8:	cb0702c2 	sub	x2, x22, x7
    40104cec:	4b0c0021 	sub	w1, w1, w12
    40104cf0:	8b0100f3 	add	x19, x7, x1
    40104cf4:	eb01005f 	cmp	x2, x1
    40104cf8:	9a968273 	csel	x19, x19, x22, hi
    40104cfc:	350001cc 	cbnz	w12, 40104d34 <LzmaDec_DecodeReal2+0x8c>
    40104d00:	529f7fe1 	mov	w1, #0xfbff                	// #64511
    40104d04:	72b7ffe1 	movk	w1, #0xbfff, lsl #16
    40104d08:	6b01001f 	cmp	w0, w1
    40104d0c:	54000149 	b.ls	40104d34 <LzmaDec_DecodeReal2+0x8c>
    40104d10:	52800020 	mov	w0, #0x1                   	// #1
    40104d14:	a94153f3 	ldp	x19, x20, [sp,#16]
    40104d18:	a9425bf5 	ldp	x21, x22, [sp,#32]
    40104d1c:	a94363f7 	ldp	x23, x24, [sp,#48]
    40104d20:	a9446bf9 	ldp	x25, x26, [sp,#64]
    40104d24:	a94573fb 	ldp	x27, x28, [sp,#80]
    40104d28:	a8c97bfd 	ldp	x29, x30, [sp],#144
    40104d2c:	d65f03c0 	ret
    40104d30:	aa1603f3 	mov	x19, x22
    40104d34:	39400161 	ldrb	w1, [x11]
    40104d38:	12bfe004 	mov	w4, #0xffffff              	// #16777215
    40104d3c:	b9008fa1 	str	w1, [x29,#140]
    40104d40:	5280007a 	mov	w26, #0x3                   	// #3
    40104d44:	39400562 	ldrb	w2, [x11,#1]
    40104d48:	52802001 	mov	w1, #0x100                 	// #256
    40104d4c:	394233a3 	ldrb	w3, [x29,#140]
    40104d50:	5280017b 	mov	w27, #0xb                   	// #11
    40104d54:	a9414565 	ldp	x5, x17, [x11,#16]
    40104d58:	1ac22022 	lsl	w2, w1, w2
    40104d5c:	1ac32421 	lsr	w1, w1, w3
    40104d60:	39400963 	ldrb	w3, [x11,#2]
    40104d64:	4b010041 	sub	w1, w2, w1
    40104d68:	12800002 	mov	w2, #0xffffffff            	// #-1
    40104d6c:	f9401174 	ldr	x20, [x11,#32]
    40104d70:	1ac32042 	lsl	w2, w2, w3
    40104d74:	2a2203e2 	mvn	w2, w2
    40104d78:	b9008ba1 	str	w1, [x29,#136]
    40104d7c:	52800003 	mov	w3, #0x0                   	// #0
    40104d80:	b9007fa2 	str	w2, [x29,#124]
    40104d84:	d12800a2 	sub	x2, x5, #0xa00
    40104d88:	b9403966 	ldr	w6, [x11,#56]
    40104d8c:	2949356e 	ldp	w14, w13, [x11,#72]
    40104d90:	f9003ba2 	str	x2, [x29,#112]
    40104d94:	294a6172 	ldp	w18, w24, [x11,#80]
    40104d98:	d11800a2 	sub	x2, x5, #0x600
    40104d9c:	b9405969 	ldr	w9, [x11,#88]
    40104da0:	f9401961 	ldr	x1, [x11,#48]
    40104da4:	f90037a2 	str	x2, [x29,#104]
    40104da8:	d1000682 	sub	x2, x20, #0x1
    40104dac:	f90033a2 	str	x2, [x29,#96]
    40104db0:	b9407fa2 	ldr	w2, [x29,#124]
    40104db4:	6b0400df 	cmp	w6, w4
    40104db8:	0a0c0048 	and	w8, w2, w12
    40104dbc:	531c6d08 	lsl	w8, w8, #4
    40104dc0:	0b09010f 	add	w15, w8, w9
    40104dc4:	d37ff9ef 	lsl	x15, x15, #1
    40104dc8:	d10801f5 	sub	x21, x15, #0x200
    40104dcc:	787568b0 	ldrh	w16, [x5,x21]
    40104dd0:	540000a8 	b.hi	40104de4 <LzmaDec_DecodeReal2+0x13c>
    40104dd4:	39400022 	ldrb	w2, [x1]
    40104dd8:	53185cc6 	lsl	w6, w6, #8
    40104ddc:	91000421 	add	x1, x1, #0x1
    40104de0:	2a002040 	orr	w0, w2, w0, lsl #8
    40104de4:	530b7cc2 	lsr	w2, w6, #11
    40104de8:	1b107c42 	mul	w2, w2, w16
    40104dec:	6b00005f 	cmp	w2, w0
    40104df0:	54003549 	b.ls	40105498 <LzmaDec_DecodeReal2+0x7f0>
    40104df4:	4b100146 	sub	w6, w10, w16
    40104df8:	910a00a8 	add	x8, x5, #0x280
    40104dfc:	0b461610 	add	w16, w16, w6, lsr #5
    40104e00:	783568b0 	strh	w16, [x5,x21]
    40104e04:	2a0c0326 	orr	w6, w25, w12
    40104e08:	34000186 	cbz	w6, 40104e38 <LzmaDec_DecodeReal2+0x190>
    40104e0c:	53185d8f 	lsl	w15, w12, #8
    40104e10:	b50013a7 	cbnz	x7, 40105084 <LzmaDec_DecodeReal2+0x3dc>
    40104e14:	f94033a6 	ldr	x6, [x29,#96]
    40104e18:	38666a26 	ldrb	w6, [x17,x6]
    40104e1c:	0b0f00c6 	add	w6, w6, w15
    40104e20:	b9408baf 	ldr	w15, [x29,#136]
    40104e24:	0a0f00c6 	and	w6, w6, w15
    40104e28:	394233af 	ldrb	w15, [x29,#140]
    40104e2c:	1acf20c6 	lsl	w6, w6, w15
    40104e30:	0b0604c6 	add	w6, w6, w6, lsl #1
    40104e34:	8b060508 	add	x8, x8, x6, lsl #1
    40104e38:	1100058c 	add	w12, w12, #0x1
    40104e3c:	7100193f 	cmp	w9, #0x6
    40104e40:	540017a8 	b.hi	40105134 <LzmaDec_DecodeReal2+0x48c>
    40104e44:	71000d3f 	cmp	w9, #0x3
    40104e48:	1a9a9126 	csel	w6, w9, w26, ls
    40104e4c:	6b04005f 	cmp	w2, w4
    40104e50:	4b060129 	sub	w9, w9, w6
    40104e54:	79400506 	ldrh	w6, [x8,#2]
    40104e58:	540000a8 	b.hi	40104e6c <LzmaDec_DecodeReal2+0x1c4>
    40104e5c:	3940002f 	ldrb	w15, [x1]
    40104e60:	53185c42 	lsl	w2, w2, #8
    40104e64:	91000421 	add	x1, x1, #0x1
    40104e68:	2a0021e0 	orr	w0, w15, w0, lsl #8
    40104e6c:	530b7c4f 	lsr	w15, w2, #11
    40104e70:	1b067def 	mul	w15, w15, w6
    40104e74:	6b0001ff 	cmp	w15, w0
    40104e78:	540010a9 	b.ls	4010508c <LzmaDec_DecodeReal2+0x3e4>
    40104e7c:	4b060142 	sub	w2, w10, w6
    40104e80:	0b4214c6 	add	w6, w6, w2, lsr #5
    40104e84:	52800042 	mov	w2, #0x2                   	// #2
    40104e88:	79000506 	strh	w6, [x8,#2]
    40104e8c:	d37f0446 	ubfiz	x6, x2, #1, #2
    40104e90:	6b0401ff 	cmp	w15, w4
    40104e94:	8b060115 	add	x21, x8, x6
    40104e98:	78666910 	ldrh	w16, [x8,x6]
    40104e9c:	540000a8 	b.hi	40104eb0 <LzmaDec_DecodeReal2+0x208>
    40104ea0:	39400026 	ldrb	w6, [x1]
    40104ea4:	53185def 	lsl	w15, w15, #8
    40104ea8:	91000421 	add	x1, x1, #0x1
    40104eac:	2a0020c0 	orr	w0, w6, w0, lsl #8
    40104eb0:	530b7de6 	lsr	w6, w15, #11
    40104eb4:	531f7842 	lsl	w2, w2, #1
    40104eb8:	1b107cc6 	mul	w6, w6, w16
    40104ebc:	6b0000df 	cmp	w6, w0
    40104ec0:	54000f29 	b.ls	401050a4 <LzmaDec_DecodeReal2+0x3fc>
    40104ec4:	4b10014f 	sub	w15, w10, w16
    40104ec8:	0b4f1610 	add	w16, w16, w15, lsr #5
    40104ecc:	790002b0 	strh	w16, [x21]
    40104ed0:	d37f7c4f 	ubfiz	x15, x2, #1, #32
    40104ed4:	6b0400df 	cmp	w6, w4
    40104ed8:	8b0f0115 	add	x21, x8, x15
    40104edc:	786f6910 	ldrh	w16, [x8,x15]
    40104ee0:	540000a8 	b.hi	40104ef4 <LzmaDec_DecodeReal2+0x24c>
    40104ee4:	3940002f 	ldrb	w15, [x1]
    40104ee8:	53185cc6 	lsl	w6, w6, #8
    40104eec:	91000421 	add	x1, x1, #0x1
    40104ef0:	2a0021e0 	orr	w0, w15, w0, lsl #8
    40104ef4:	530b7ccf 	lsr	w15, w6, #11
    40104ef8:	531f7842 	lsl	w2, w2, #1
    40104efc:	1b107def 	mul	w15, w15, w16
    40104f00:	6b0001ff 	cmp	w15, w0
    40104f04:	54000dc9 	b.ls	401050bc <LzmaDec_DecodeReal2+0x414>
    40104f08:	4b100146 	sub	w6, w10, w16
    40104f0c:	0b461610 	add	w16, w16, w6, lsr #5
    40104f10:	790002b0 	strh	w16, [x21]
    40104f14:	d37f7c46 	ubfiz	x6, x2, #1, #32
    40104f18:	6b0401ff 	cmp	w15, w4
    40104f1c:	8b060115 	add	x21, x8, x6
    40104f20:	78666910 	ldrh	w16, [x8,x6]
    40104f24:	540000a8 	b.hi	40104f38 <LzmaDec_DecodeReal2+0x290>
    40104f28:	39400026 	ldrb	w6, [x1]
    40104f2c:	53185def 	lsl	w15, w15, #8
    40104f30:	91000421 	add	x1, x1, #0x1
    40104f34:	2a0020c0 	orr	w0, w6, w0, lsl #8
    40104f38:	530b7de6 	lsr	w6, w15, #11
    40104f3c:	531f7842 	lsl	w2, w2, #1
    40104f40:	1b107cc6 	mul	w6, w6, w16
    40104f44:	6b0000df 	cmp	w6, w0
    40104f48:	54000c69 	b.ls	401050d4 <LzmaDec_DecodeReal2+0x42c>
    40104f4c:	4b10014f 	sub	w15, w10, w16
    40104f50:	0b4f1610 	add	w16, w16, w15, lsr #5
    40104f54:	790002b0 	strh	w16, [x21]
    40104f58:	d37f7c4f 	ubfiz	x15, x2, #1, #32
    40104f5c:	6b0400df 	cmp	w6, w4
    40104f60:	8b0f0115 	add	x21, x8, x15
    40104f64:	786f6910 	ldrh	w16, [x8,x15]
    40104f68:	540000a8 	b.hi	40104f7c <LzmaDec_DecodeReal2+0x2d4>
    40104f6c:	3940002f 	ldrb	w15, [x1]
    40104f70:	53185cc6 	lsl	w6, w6, #8
    40104f74:	91000421 	add	x1, x1, #0x1
    40104f78:	2a0021e0 	orr	w0, w15, w0, lsl #8
    40104f7c:	530b7ccf 	lsr	w15, w6, #11
    40104f80:	531f7842 	lsl	w2, w2, #1
    40104f84:	1b107def 	mul	w15, w15, w16
    40104f88:	6b0001ff 	cmp	w15, w0
    40104f8c:	54000b09 	b.ls	401050ec <LzmaDec_DecodeReal2+0x444>
    40104f90:	4b100146 	sub	w6, w10, w16
    40104f94:	0b461610 	add	w16, w16, w6, lsr #5
    40104f98:	790002b0 	strh	w16, [x21]
    40104f9c:	d37f7c46 	ubfiz	x6, x2, #1, #32
    40104fa0:	6b0401ff 	cmp	w15, w4
    40104fa4:	8b060115 	add	x21, x8, x6
    40104fa8:	78666910 	ldrh	w16, [x8,x6]
    40104fac:	540000a8 	b.hi	40104fc0 <LzmaDec_DecodeReal2+0x318>
    40104fb0:	39400026 	ldrb	w6, [x1]
    40104fb4:	53185def 	lsl	w15, w15, #8
    40104fb8:	91000421 	add	x1, x1, #0x1
    40104fbc:	2a0020c0 	orr	w0, w6, w0, lsl #8
    40104fc0:	530b7de6 	lsr	w6, w15, #11
    40104fc4:	531f7842 	lsl	w2, w2, #1
    40104fc8:	1b107cc6 	mul	w6, w6, w16
    40104fcc:	6b0000df 	cmp	w6, w0
    40104fd0:	540009a9 	b.ls	40105104 <LzmaDec_DecodeReal2+0x45c>
    40104fd4:	4b10014f 	sub	w15, w10, w16
    40104fd8:	0b4f1610 	add	w16, w16, w15, lsr #5
    40104fdc:	790002b0 	strh	w16, [x21]
    40104fe0:	d37f7c4f 	ubfiz	x15, x2, #1, #32
    40104fe4:	6b0400df 	cmp	w6, w4
    40104fe8:	8b0f0115 	add	x21, x8, x15
    40104fec:	786f6910 	ldrh	w16, [x8,x15]
    40104ff0:	540000a8 	b.hi	40105004 <LzmaDec_DecodeReal2+0x35c>
    40104ff4:	3940002f 	ldrb	w15, [x1]
    40104ff8:	53185cc6 	lsl	w6, w6, #8
    40104ffc:	91000421 	add	x1, x1, #0x1
    40105000:	2a0021e0 	orr	w0, w15, w0, lsl #8
    40105004:	530b7ccf 	lsr	w15, w6, #11
    40105008:	531f7842 	lsl	w2, w2, #1
    4010500c:	1b107def 	mul	w15, w15, w16
    40105010:	6b0001ff 	cmp	w15, w0
    40105014:	54000849 	b.ls	4010511c <LzmaDec_DecodeReal2+0x474>
    40105018:	4b100146 	sub	w6, w10, w16
    4010501c:	0b461610 	add	w16, w16, w6, lsr #5
    40105020:	790002b0 	strh	w16, [x21]
    40105024:	d37f7c46 	ubfiz	x6, x2, #1, #32
    40105028:	8b060110 	add	x16, x8, x6
    4010502c:	6b0401ff 	cmp	w15, w4
    40105030:	78666908 	ldrh	w8, [x8,x6]
    40105034:	540000a8 	b.hi	40105048 <LzmaDec_DecodeReal2+0x3a0>
    40105038:	39400026 	ldrb	w6, [x1]
    4010503c:	53185def 	lsl	w15, w15, #8
    40105040:	91000421 	add	x1, x1, #0x1
    40105044:	2a0020c0 	orr	w0, w6, w0, lsl #8
    40105048:	530b7de6 	lsr	w6, w15, #11
    4010504c:	531f7842 	lsl	w2, w2, #1
    40105050:	1b087cc6 	mul	w6, w6, w8
    40105054:	6b0000df 	cmp	w6, w0
    40105058:	54002149 	b.ls	40105480 <LzmaDec_DecodeReal2+0x7d8>
    4010505c:	4b08014f 	sub	w15, w10, w8
    40105060:	0b4f1508 	add	w8, w8, w15, lsr #5
    40105064:	79000208 	strh	w8, [x16]
    40105068:	38276a22 	strb	w2, [x17,x7]
    4010506c:	910004e7 	add	x7, x7, #0x1
    40105070:	f94043a2 	ldr	x2, [x29,#128]
    40105074:	eb07027f 	cmp	x19, x7
    40105078:	fa418040 	ccmp	x2, x1, #0x0, hi
    4010507c:	54ffe9a8 	b.hi	40104db0 <LzmaDec_DecodeReal2+0x108>
    40105080:	1400036b 	b	40105e2c <LzmaDec_DecodeReal2+0x1184>
    40105084:	d10004e6 	sub	x6, x7, #0x1
    40105088:	17ffff64 	b	40104e18 <LzmaDec_DecodeReal2+0x170>
    4010508c:	4b0f0000 	sub	w0, w0, w15
    40105090:	4b4614c6 	sub	w6, w6, w6, lsr #5
    40105094:	4b0f004f 	sub	w15, w2, w15
    40105098:	79000506 	strh	w6, [x8,#2]
    4010509c:	52800062 	mov	w2, #0x3                   	// #3
    401050a0:	17ffff7b 	b	40104e8c <LzmaDec_DecodeReal2+0x1e4>
    401050a4:	4b060000 	sub	w0, w0, w6
    401050a8:	4b501610 	sub	w16, w16, w16, lsr #5
    401050ac:	11000442 	add	w2, w2, #0x1
    401050b0:	790002b0 	strh	w16, [x21]
    401050b4:	4b0601e6 	sub	w6, w15, w6
    401050b8:	17ffff86 	b	40104ed0 <LzmaDec_DecodeReal2+0x228>
    401050bc:	4b0f0000 	sub	w0, w0, w15
    401050c0:	4b501610 	sub	w16, w16, w16, lsr #5
    401050c4:	11000442 	add	w2, w2, #0x1
    401050c8:	790002b0 	strh	w16, [x21]
    401050cc:	4b0f00cf 	sub	w15, w6, w15
    401050d0:	17ffff91 	b	40104f14 <LzmaDec_DecodeReal2+0x26c>
    401050d4:	4b060000 	sub	w0, w0, w6
    401050d8:	4b501610 	sub	w16, w16, w16, lsr #5
    401050dc:	11000442 	add	w2, w2, #0x1
    401050e0:	790002b0 	strh	w16, [x21]
    401050e4:	4b0601e6 	sub	w6, w15, w6
    401050e8:	17ffff9c 	b	40104f58 <LzmaDec_DecodeReal2+0x2b0>
    401050ec:	4b0f0000 	sub	w0, w0, w15
    401050f0:	4b501610 	sub	w16, w16, w16, lsr #5
    401050f4:	11000442 	add	w2, w2, #0x1
    401050f8:	790002b0 	strh	w16, [x21]
    401050fc:	4b0f00cf 	sub	w15, w6, w15
    40105100:	17ffffa7 	b	40104f9c <LzmaDec_DecodeReal2+0x2f4>
    40105104:	4b060000 	sub	w0, w0, w6
    40105108:	4b501610 	sub	w16, w16, w16, lsr #5
    4010510c:	11000442 	add	w2, w2, #0x1
    40105110:	790002b0 	strh	w16, [x21]
    40105114:	4b0601e6 	sub	w6, w15, w6
    40105118:	17ffffb2 	b	40104fe0 <LzmaDec_DecodeReal2+0x338>
    4010511c:	4b0f0000 	sub	w0, w0, w15
    40105120:	4b501610 	sub	w16, w16, w16, lsr #5
    40105124:	11000442 	add	w2, w2, #0x1
    40105128:	790002b0 	strh	w16, [x21]
    4010512c:	4b0f00cf 	sub	w15, w6, w15
    40105130:	17ffffbd 	b	40105024 <LzmaDec_DecodeReal2+0x37c>
    40105134:	2a0e03ef 	mov	w15, w14
    40105138:	cb0f00e6 	sub	x6, x7, x15
    4010513c:	eb0f00ff 	cmp	x7, x15
    40105140:	9a9f328f 	csel	x15, x20, xzr, cc
    40105144:	8b060226 	add	x6, x17, x6
    40105148:	7100293f 	cmp	w9, #0xa
    4010514c:	386f68c6 	ldrb	w6, [x6,x15]
    40105150:	528000cf 	mov	w15, #0x6                   	// #6
    40105154:	1a8f334f 	csel	w15, w26, w15, cc
    40105158:	6b04005f 	cmp	w2, w4
    4010515c:	4b0f0129 	sub	w9, w9, w15
    40105160:	531f78c6 	lsl	w6, w6, #1
    40105164:	121800dc 	and	w28, w6, #0x100
    40105168:	1104078f 	add	w15, w28, #0x101
    4010516c:	d37f25ef 	ubfiz	x15, x15, #1, #10
    40105170:	8b0f0115 	add	x21, x8, x15
    40105174:	786f6910 	ldrh	w16, [x8,x15]
    40105178:	540000a8 	b.hi	4010518c <LzmaDec_DecodeReal2+0x4e4>
    4010517c:	3940002f 	ldrb	w15, [x1]
    40105180:	53185c42 	lsl	w2, w2, #8
    40105184:	91000421 	add	x1, x1, #0x1
    40105188:	2a0021e0 	orr	w0, w15, w0, lsl #8
    4010518c:	530b7c4f 	lsr	w15, w2, #11
    40105190:	1b107def 	mul	w15, w15, w16
    40105194:	6b0001ff 	cmp	w15, w0
    40105198:	54001209 	b.ls	401053d8 <LzmaDec_DecodeReal2+0x730>
    4010519c:	2a2603fc 	mvn	w28, w6
    401051a0:	4b100142 	sub	w2, w10, w16
    401051a4:	1218039c 	and	w28, w28, #0x100
    401051a8:	0b421610 	add	w16, w16, w2, lsr #5
    401051ac:	52800042 	mov	w2, #0x2                   	// #2
    401051b0:	790002b0 	strh	w16, [x21]
    401051b4:	531f78c6 	lsl	w6, w6, #1
    401051b8:	0b020390 	add	w16, w28, w2
    401051bc:	0a1c00d7 	and	w23, w6, w28
    401051c0:	6b0401ff 	cmp	w15, w4
    401051c4:	0b170210 	add	w16, w16, w23
    401051c8:	d37f2a10 	ubfiz	x16, x16, #1, #11
    401051cc:	8b10011e 	add	x30, x8, x16
    401051d0:	78706915 	ldrh	w21, [x8,x16]
    401051d4:	540000a8 	b.hi	401051e8 <LzmaDec_DecodeReal2+0x540>
    401051d8:	39400030 	ldrb	w16, [x1]
    401051dc:	53185def 	lsl	w15, w15, #8
    401051e0:	91000421 	add	x1, x1, #0x1
    401051e4:	2a002200 	orr	w0, w16, w0, lsl #8
    401051e8:	530b7df0 	lsr	w16, w15, #11
    401051ec:	531f7842 	lsl	w2, w2, #1
    401051f0:	1b157e10 	mul	w16, w16, w21
    401051f4:	6b00021f 	cmp	w16, w0
    401051f8:	54000fc9 	b.ls	401053f0 <LzmaDec_DecodeReal2+0x748>
    401051fc:	4b15014f 	sub	w15, w10, w21
    40105200:	0a260397 	bic	w23, w28, w6
    40105204:	0b4f16b5 	add	w21, w21, w15, lsr #5
    40105208:	790003d5 	strh	w21, [x30]
    4010520c:	531f78c6 	lsl	w6, w6, #1
    40105210:	0b0202ef 	add	w15, w23, w2
    40105214:	0a1700d5 	and	w21, w6, w23
    40105218:	6b04021f 	cmp	w16, w4
    4010521c:	0b1501ef 	add	w15, w15, w21
    40105220:	d37ff9ef 	lsl	x15, x15, #1
    40105224:	8b0f011e 	add	x30, x8, x15
    40105228:	786f691c 	ldrh	w28, [x8,x15]
    4010522c:	540000a8 	b.hi	40105240 <LzmaDec_DecodeReal2+0x598>
    40105230:	3940002f 	ldrb	w15, [x1]
    40105234:	53185e10 	lsl	w16, w16, #8
    40105238:	91000421 	add	x1, x1, #0x1
    4010523c:	2a0021e0 	orr	w0, w15, w0, lsl #8
    40105240:	530b7e0f 	lsr	w15, w16, #11
    40105244:	531f7842 	lsl	w2, w2, #1
    40105248:	1b1c7def 	mul	w15, w15, w28
    4010524c:	6b0001ff 	cmp	w15, w0
    40105250:	54000dc9 	b.ls	40105408 <LzmaDec_DecodeReal2+0x760>
    40105254:	4b1c0150 	sub	w16, w10, w28
    40105258:	0a2602f5 	bic	w21, w23, w6
    4010525c:	0b50179c 	add	w28, w28, w16, lsr #5
    40105260:	790003dc 	strh	w28, [x30]
    40105264:	531f78c6 	lsl	w6, w6, #1
    40105268:	0b0202b0 	add	w16, w21, w2
    4010526c:	0a1500d7 	and	w23, w6, w21
    40105270:	6b0401ff 	cmp	w15, w4
    40105274:	0b170210 	add	w16, w16, w23
    40105278:	d37ffa10 	lsl	x16, x16, #1
    4010527c:	8b10011e 	add	x30, x8, x16
    40105280:	7870691c 	ldrh	w28, [x8,x16]
    40105284:	540000a8 	b.hi	40105298 <LzmaDec_DecodeReal2+0x5f0>
    40105288:	39400030 	ldrb	w16, [x1]
    4010528c:	53185def 	lsl	w15, w15, #8
    40105290:	91000421 	add	x1, x1, #0x1
    40105294:	2a002200 	orr	w0, w16, w0, lsl #8
    40105298:	530b7df0 	lsr	w16, w15, #11
    4010529c:	531f7842 	lsl	w2, w2, #1
    401052a0:	1b1c7e10 	mul	w16, w16, w28
    401052a4:	6b00021f 	cmp	w16, w0
    401052a8:	54000bc9 	b.ls	40105420 <LzmaDec_DecodeReal2+0x778>
    401052ac:	4b1c014f 	sub	w15, w10, w28
    401052b0:	0a2602b7 	bic	w23, w21, w6
    401052b4:	0b4f179c 	add	w28, w28, w15, lsr #5
    401052b8:	790003dc 	strh	w28, [x30]
    401052bc:	531f78c6 	lsl	w6, w6, #1
    401052c0:	0b0202ef 	add	w15, w23, w2
    401052c4:	0a1700d5 	and	w21, w6, w23
    401052c8:	6b04021f 	cmp	w16, w4
    401052cc:	0b1501ef 	add	w15, w15, w21
    401052d0:	d37ff9ef 	lsl	x15, x15, #1
    401052d4:	8b0f011e 	add	x30, x8, x15
    401052d8:	786f691c 	ldrh	w28, [x8,x15]
    401052dc:	540000a8 	b.hi	401052f0 <LzmaDec_DecodeReal2+0x648>
    401052e0:	3940002f 	ldrb	w15, [x1]
    401052e4:	53185e10 	lsl	w16, w16, #8
    401052e8:	91000421 	add	x1, x1, #0x1
    401052ec:	2a0021e0 	orr	w0, w15, w0, lsl #8
    401052f0:	530b7e0f 	lsr	w15, w16, #11
    401052f4:	531f7842 	lsl	w2, w2, #1
    401052f8:	1b1c7def 	mul	w15, w15, w28
    401052fc:	6b0001ff 	cmp	w15, w0
    40105300:	540009c9 	b.ls	40105438 <LzmaDec_DecodeReal2+0x790>
    40105304:	4b1c0150 	sub	w16, w10, w28
    40105308:	0a2602f5 	bic	w21, w23, w6
    4010530c:	0b50179c 	add	w28, w28, w16, lsr #5
    40105310:	790003dc 	strh	w28, [x30]
    40105314:	531f78c6 	lsl	w6, w6, #1
    40105318:	0b0202b0 	add	w16, w21, w2
    4010531c:	0a1500d7 	and	w23, w6, w21
    40105320:	6b0401ff 	cmp	w15, w4
    40105324:	0b170210 	add	w16, w16, w23
    40105328:	d37ffa10 	lsl	x16, x16, #1
    4010532c:	8b10011e 	add	x30, x8, x16
    40105330:	7870691c 	ldrh	w28, [x8,x16]
    40105334:	540000a8 	b.hi	40105348 <LzmaDec_DecodeReal2+0x6a0>
    40105338:	39400030 	ldrb	w16, [x1]
    4010533c:	53185def 	lsl	w15, w15, #8
    40105340:	91000421 	add	x1, x1, #0x1
    40105344:	2a002200 	orr	w0, w16, w0, lsl #8
    40105348:	530b7df0 	lsr	w16, w15, #11
    4010534c:	531f7842 	lsl	w2, w2, #1
    40105350:	1b1c7e10 	mul	w16, w16, w28
    40105354:	6b00021f 	cmp	w16, w0
    40105358:	540007c9 	b.ls	40105450 <LzmaDec_DecodeReal2+0x7a8>
    4010535c:	4b1c014f 	sub	w15, w10, w28
    40105360:	0a2602b7 	bic	w23, w21, w6
    40105364:	0b4f179c 	add	w28, w28, w15, lsr #5
    40105368:	790003dc 	strh	w28, [x30]
    4010536c:	531f78c6 	lsl	w6, w6, #1
    40105370:	0b0202ef 	add	w15, w23, w2
    40105374:	0a1700d5 	and	w21, w6, w23
    40105378:	6b04021f 	cmp	w16, w4
    4010537c:	0b1501ef 	add	w15, w15, w21
    40105380:	d37ff9ef 	lsl	x15, x15, #1
    40105384:	8b0f011c 	add	x28, x8, x15
    40105388:	786f691e 	ldrh	w30, [x8,x15]
    4010538c:	540000a8 	b.hi	401053a0 <LzmaDec_DecodeReal2+0x6f8>
    40105390:	3940002f 	ldrb	w15, [x1]
    40105394:	53185e10 	lsl	w16, w16, #8
    40105398:	91000421 	add	x1, x1, #0x1
    4010539c:	2a0021e0 	orr	w0, w15, w0, lsl #8
    401053a0:	530b7e0f 	lsr	w15, w16, #11
    401053a4:	531f7842 	lsl	w2, w2, #1
    401053a8:	1b1e7def 	mul	w15, w15, w30
    401053ac:	6b0001ff 	cmp	w15, w0
    401053b0:	540005c9 	b.ls	40105468 <LzmaDec_DecodeReal2+0x7c0>
    401053b4:	4b1e0150 	sub	w16, w10, w30
    401053b8:	0a2602f5 	bic	w21, w23, w6
    401053bc:	0b5017de 	add	w30, w30, w16, lsr #5
    401053c0:	7900039e 	strh	w30, [x28]
    401053c4:	0a0606a6 	and	w6, w21, w6, lsl #1
    401053c8:	0b0202b5 	add	w21, w21, w2
    401053cc:	0b1500c6 	add	w6, w6, w21
    401053d0:	d37ff8c6 	lsl	x6, x6, #1
    401053d4:	17ffff15 	b	40105028 <LzmaDec_DecodeReal2+0x380>
    401053d8:	4b0f0000 	sub	w0, w0, w15
    401053dc:	4b501610 	sub	w16, w16, w16, lsr #5
    401053e0:	4b0f004f 	sub	w15, w2, w15
    401053e4:	790002b0 	strh	w16, [x21]
    401053e8:	52800062 	mov	w2, #0x3                   	// #3
    401053ec:	17ffff72 	b	401051b4 <LzmaDec_DecodeReal2+0x50c>
    401053f0:	4b100000 	sub	w0, w0, w16
    401053f4:	4b5516b5 	sub	w21, w21, w21, lsr #5
    401053f8:	11000442 	add	w2, w2, #0x1
    401053fc:	790003d5 	strh	w21, [x30]
    40105400:	4b1001f0 	sub	w16, w15, w16
    40105404:	17ffff82 	b	4010520c <LzmaDec_DecodeReal2+0x564>
    40105408:	4b0f0000 	sub	w0, w0, w15
    4010540c:	4b5c179c 	sub	w28, w28, w28, lsr #5
    40105410:	11000442 	add	w2, w2, #0x1
    40105414:	790003dc 	strh	w28, [x30]
    40105418:	4b0f020f 	sub	w15, w16, w15
    4010541c:	17ffff92 	b	40105264 <LzmaDec_DecodeReal2+0x5bc>
    40105420:	4b100000 	sub	w0, w0, w16
    40105424:	4b5c179c 	sub	w28, w28, w28, lsr #5
    40105428:	11000442 	add	w2, w2, #0x1
    4010542c:	790003dc 	strh	w28, [x30]
    40105430:	4b1001f0 	sub	w16, w15, w16
    40105434:	17ffffa2 	b	401052bc <LzmaDec_DecodeReal2+0x614>
    40105438:	4b0f0000 	sub	w0, w0, w15
    4010543c:	4b5c179c 	sub	w28, w28, w28, lsr #5
    40105440:	11000442 	add	w2, w2, #0x1
    40105444:	790003dc 	strh	w28, [x30]
    40105448:	4b0f020f 	sub	w15, w16, w15
    4010544c:	17ffffb2 	b	40105314 <LzmaDec_DecodeReal2+0x66c>
    40105450:	4b100000 	sub	w0, w0, w16
    40105454:	4b5c179c 	sub	w28, w28, w28, lsr #5
    40105458:	11000442 	add	w2, w2, #0x1
    4010545c:	790003dc 	strh	w28, [x30]
    40105460:	4b1001f0 	sub	w16, w15, w16
    40105464:	17ffffc2 	b	4010536c <LzmaDec_DecodeReal2+0x6c4>
    40105468:	4b0f0000 	sub	w0, w0, w15
    4010546c:	4b5e17de 	sub	w30, w30, w30, lsr #5
    40105470:	11000442 	add	w2, w2, #0x1
    40105474:	7900039e 	strh	w30, [x28]
    40105478:	4b0f020f 	sub	w15, w16, w15
    4010547c:	17ffffd2 	b	401053c4 <LzmaDec_DecodeReal2+0x71c>
    40105480:	4b060000 	sub	w0, w0, w6
    40105484:	4b481508 	sub	w8, w8, w8, lsr #5
    40105488:	11000442 	add	w2, w2, #0x1
    4010548c:	79000208 	strh	w8, [x16]
    40105490:	4b0601e6 	sub	w6, w15, w6
    40105494:	17fffef5 	b	40105068 <LzmaDec_DecodeReal2+0x3c0>
    40105498:	4b501610 	sub	w16, w16, w16, lsr #5
    4010549c:	783568b0 	strh	w16, [x5,x21]
    401054a0:	d37f7d30 	ubfiz	x16, x9, #1, #32
    401054a4:	4b0200c6 	sub	w6, w6, w2
    401054a8:	91008210 	add	x16, x16, #0x20
    401054ac:	4b020000 	sub	w0, w0, w2
    401054b0:	6b0400df 	cmp	w6, w4
    401054b4:	787068b5 	ldrh	w21, [x5,x16]
    401054b8:	540000a8 	b.hi	401054cc <LzmaDec_DecodeReal2+0x824>
    401054bc:	39400022 	ldrb	w2, [x1]
    401054c0:	53185cc6 	lsl	w6, w6, #8
    401054c4:	91000421 	add	x1, x1, #0x1
    401054c8:	2a002040 	orr	w0, w2, w0, lsl #8
    401054cc:	530b7cc2 	lsr	w2, w6, #11
    401054d0:	1b157c42 	mul	w2, w2, w21
    401054d4:	6b00005f 	cmp	w2, w0
    401054d8:	54001b49 	b.ls	40105840 <LzmaDec_DecodeReal2+0xb98>
    401054dc:	4b150143 	sub	w3, w10, w21
    401054e0:	11003129 	add	w9, w9, #0xc
    401054e4:	0b4316b5 	add	w21, w21, w3, lsr #5
    401054e8:	783068b5 	strh	w21, [x5,x16]
    401054ec:	f94037b0 	ldr	x16, [x29,#104]
    401054f0:	2a0e03ef 	mov	w15, w14
    401054f4:	7940020e 	ldrh	w14, [x16]
    401054f8:	6b04005f 	cmp	w2, w4
    401054fc:	540000a8 	b.hi	40105510 <LzmaDec_DecodeReal2+0x868>
    40105500:	39400023 	ldrb	w3, [x1]
    40105504:	53185c42 	lsl	w2, w2, #8
    40105508:	91000421 	add	x1, x1, #0x1
    4010550c:	2a002060 	orr	w0, w3, w0, lsl #8
    40105510:	530b7c43 	lsr	w3, w2, #11
    40105514:	1b0e7c63 	mul	w3, w3, w14
    40105518:	6b00007f 	cmp	w3, w0
    4010551c:	54002969 	b.ls	40105a48 <LzmaDec_DecodeReal2+0xda0>
    40105520:	4b0e0142 	sub	w2, w10, w14
    40105524:	8b080608 	add	x8, x16, x8, lsl #1
    40105528:	0b4215ce 	add	w14, w14, w2, lsr #5
    4010552c:	7900020e 	strh	w14, [x16]
    40105530:	6b04007f 	cmp	w3, w4
    40105534:	79400502 	ldrh	w2, [x8,#2]
    40105538:	540000a8 	b.hi	4010554c <LzmaDec_DecodeReal2+0x8a4>
    4010553c:	39400026 	ldrb	w6, [x1]
    40105540:	53185c63 	lsl	w3, w3, #8
    40105544:	91000421 	add	x1, x1, #0x1
    40105548:	2a0020c0 	orr	w0, w6, w0, lsl #8
    4010554c:	530b7c66 	lsr	w6, w3, #11
    40105550:	1b027cc6 	mul	w6, w6, w2
    40105554:	6b0000df 	cmp	w6, w0
    40105558:	54002549 	b.ls	40105a00 <LzmaDec_DecodeReal2+0xd58>
    4010555c:	4b020143 	sub	w3, w10, w2
    40105560:	0b431442 	add	w2, w2, w3, lsr #5
    40105564:	52800043 	mov	w3, #0x2                   	// #2
    40105568:	79000502 	strh	w2, [x8,#2]
    4010556c:	d37f0470 	ubfiz	x16, x3, #1, #2
    40105570:	6b0400df 	cmp	w6, w4
    40105574:	7870690e 	ldrh	w14, [x8,x16]
    40105578:	540000a8 	b.hi	4010558c <LzmaDec_DecodeReal2+0x8e4>
    4010557c:	39400022 	ldrb	w2, [x1]
    40105580:	53185cc6 	lsl	w6, w6, #8
    40105584:	91000421 	add	x1, x1, #0x1
    40105588:	2a002040 	orr	w0, w2, w0, lsl #8
    4010558c:	530b7cc2 	lsr	w2, w6, #11
    40105590:	531f7863 	lsl	w3, w3, #1
    40105594:	1b0e7c42 	mul	w2, w2, w14
    40105598:	6b00005f 	cmp	w2, w0
    4010559c:	540023e9 	b.ls	40105a18 <LzmaDec_DecodeReal2+0xd70>
    401055a0:	4b0e0146 	sub	w6, w10, w14
    401055a4:	0b4615ce 	add	w14, w14, w6, lsr #5
    401055a8:	7830690e 	strh	w14, [x8,x16]
    401055ac:	d37f7c70 	ubfiz	x16, x3, #1, #32
    401055b0:	6b04005f 	cmp	w2, w4
    401055b4:	7870690e 	ldrh	w14, [x8,x16]
    401055b8:	540000a8 	b.hi	401055cc <LzmaDec_DecodeReal2+0x924>
    401055bc:	39400026 	ldrb	w6, [x1]
    401055c0:	53185c42 	lsl	w2, w2, #8
    401055c4:	91000421 	add	x1, x1, #0x1
    401055c8:	2a0020c0 	orr	w0, w6, w0, lsl #8
    401055cc:	530b7c46 	lsr	w6, w2, #11
    401055d0:	531f7863 	lsl	w3, w3, #1
    401055d4:	1b0e7cc6 	mul	w6, w6, w14
    401055d8:	6b0000df 	cmp	w6, w0
    401055dc:	540022a9 	b.ls	40105a30 <LzmaDec_DecodeReal2+0xd88>
    401055e0:	4b0e0142 	sub	w2, w10, w14
    401055e4:	0b4215ce 	add	w14, w14, w2, lsr #5
    401055e8:	7830690e 	strh	w14, [x8,x16]
    401055ec:	51002063 	sub	w3, w3, #0x8
    401055f0:	71002d3f 	cmp	w9, #0xb
    401055f4:	540048e9 	b.ls	40105f10 <LzmaDec_DecodeReal2+0x1268>
    401055f8:	71000c7f 	cmp	w3, #0x3
    401055fc:	1a9a906e 	csel	w14, w3, w26, ls
    40105600:	6b0400df 	cmp	w6, w4
    40105604:	d37965ce 	ubfiz	x14, x14, #7, #26
